ccopy_reg
_reconstructor
p1
(ctensorflow.contrib.learn.python.learn.preprocessing.text
VocabularyProcessor
p2
c__builtin__
object
p3
NtRp4
(dp5
S'vocabulary_'
p6
g1
(ctensorflow.contrib.learn.python.learn.preprocessing.categorical_vocabulary
CategoricalVocabulary
p7
g3
NtRp8
(dp9
S'_freeze'
p10
I01
sS'_unknown_token'
p11
S'<UNK>'
p12
sS'_support_reverse'
p13
I01
sS'_freq'
p14
ccollections
defaultdict
p15
(c__builtin__
int
p16
tRp17
S'raining'
p18
I1
sS'superman'
p19
I1
sS'believed'
p20
I1
sS'nun'
p21
I1
sS'colleges'
p22
I1
sS'foul'
p23
I1
sS'four'
p24
I6
sS'prefix'
p25
I1
sS'sleep'
p26
I1
sS'asian'
p27
I2
sS'165'
p28
I1
sS'woody'
p29
I2
sS'oldest'
p30
I5
sS'bank'
p31
I1
sS'poorly'
p32
I1
sS'ozzy'
p33
I1
sS'whose'
p34
I12
sS'founder'
p35
I2
sS'electricity'
p36
I1
sS'doonesbury'
p37
I1
sS'painters'
p38
I1
sS'edward'
p39
I1
sS'fischer'
p40
I1
sS'under'
p41
I3
sS'lord'
p42
I1
sS'slowest'
p43
I1
sS'pride'
p44
I1
sS'worth'
p45
I2
sS'pact'
p46
I1
sS'oceans'
p47
I2
sS'forlead'
p48
I1
sS'homes'
p49
I1
sS'jack'
p50
I2
sS'confederate'
p51
I1
sS'defects'
p52
I1
sS'fireplace'
p53
I1
sS'chapel'
p54
I1
sS'adenauer'
p55
I1
sS'school'
p56
I7
sS'baking'
p57
I1
sS'prize'
p58
I6
sS'fogs'
p59
I1
sS'induction'
p60
I2
sS'graced'
p61
I1
sS'humidity'
p62
I1
sS'yougurt'
p63
I1
sS'casinos'
p64
I1
sS'announced'
p65
I1
sS'falwell'
p66
I1
sS'clothes'
p67
I2
sS'force'
p68
I1
sS'leaders'
p69
I1
sS'bacon'
p70
I1
sS'direct'
p71
I1
sS'second'
p72
I5
sS'street'
p73
I3
sS'summer'
p74
I1
sS'49'
p75
I1
sS'wenceslas'
p76
I1
sS'machines'
p77
I1
sS'theory'
p78
I1
sS'blue'
p79
I2
sS'aim'
p80
I1
sS'captain'
p81
I2
sS'christ'
p82
I1
sS'thunder'
p83
I2
sS'panama'
p84
I1
sS'cooking'
p85
I2
sS'hp'
p86
I1
sS'fingers'
p87
I1
sS'liberty'
p88
I2
sS'liberated'
p89
I1
sS'dangles'
p90
I1
sS'toll'
p91
I1
sS'new'
p92
I18
sS'tips'
p93
I1
sS'ever'
p94
I6
sS'admiral'
p95
I1
sS'told'
p96
I2
sS'hero'
p97
I3
sS'dow'
p98
I1
sS'mel'
p99
I2
sS'men'
p100
I3
sS'disposable'
p101
I1
sS"10'"
p102
I1
sS'here'
p103
I1
sS'89q'
p104
I1
sS'met'
p105
I2
sS'coal'
p106
I1
sS'china'
p107
I1
sS'brooks'
p108
I2
sS'represented'
p109
I2
sS'103'
p110
I1
sS'dry'
p111
I2
sS'invade'
p112
I1
sS'watchers'
p113
I1
sS'depreciates'
p114
I1
sS'k'
I3
sS'reports'
p115
I1
sS'tv'
p116
I5
sS'jogging'
p117
I1
sS'mentor'
p118
I1
sS'california'
p119
I4
sS'knowpost'
p120
I1
sS'settled'
p121
I1
sS'golden'
p122
I2
sS'fantastic'
p123
I1
sS'carl'
p124
I2
sS'potlatch'
p125
I1
sS'touchdowns'
p126
I1
sS'graders'
p127
I1
sS'maurizio'
p128
I3
sS'erected'
p129
I1
sS'brought'
p130
I1
sS'visible'
p131
I1
sS'amherst'
p132
I1
sS'poems'
p133
I1
sS'cocaine'
p134
I2
sS'bra'
p135
I1
sS'comprised'
p136
I1
sS'plot'
p137
I1
sS'dna'
p138
I1
sS'spoke'
p139
I1
sS'would'
p140
I10
sS'army'
p141
I1
sS'mexico'
p142
I1
sS'arms'
p143
I1
sS'iq'
p144
I2
sS'call'
p145
I8
sS'tabulates'
p146
I1
sS'robertson'
p147
I1
sS'type'
p148
I3
sS'is'
p149
I392
sS'arma'
p150
I2
sS'holy'
p151
I1
sS'relax'
p152
I1
sS'successful'
p153
I2
sS'oscar'
p154
I2
sS'crooner'
p155
I1
sS'yahoo'
p156
I2
sS'reign'
p157
I2
sS'warn'
p158
I1
sS'98'
p159
I1
sS'connecticut'
p160
I1
sS'warm'
p161
I1
sS'pecan'
p162
I1
sS'adult'
p163
I1
sS'hole'
p164
I1
sS'hold'
p165
I2
sS'pulitzer'
p166
I1
sS'me'
p167
I13
sS'directorial'
p168
I1
sS'intake'
p169
I1
sS'word'
p170
I14
sS'1994'
p171
I2
sS'rights'
p172
I3
sS'1999'
p173
I1
sS'1998'
p174
I1
sS'work'
p175
I22
sS'roof'
p176
I1
sS'movies'
p177
I1
sS'thermador'
p178
I1
sS'temperatures'
p179
I1
sS'install'
p180
I1
sS'henry'
p181
I3
sS'grenada'
p182
I1
sS'root'
p183
I1
sS'example'
p184
I1
sS'cans'
p185
I1
sS'boyfriend'
p186
I1
sS'estate'
p187
I1
sS'hyatt'
p188
I1
sS'calories'
p189
I1
sS'household'
p190
I1
sS'india'
p191
I4
sS'titanium'
p192
I1
sS'indies'
p193
I1
sS'oxfords'
p194
I1
sS'want'
p195
I1
sS'keep'
p196
I3
sS'dyke'
p197
I1
sS'legs'
p198
I1
sS'guarantee'
p199
I1
sS'tornadoes'
p200
I1
sS'end'
p201
I2
sS'january'
p202
I2
sS'provide'
p203
I1
sS'verify'
p204
I1
sS'travel'
p205
I3
sS'nuts'
p206
I1
sS'feature'
p207
I1
sS'machine'
p208
I2
sS'how'
p209
I130
sS'chicks'
p210
I1
sS'dannon'
p211
I1
sS'gate'
p212
I3
sS'winslow'
p213
I1
sS'beach'
p214
I2
sS'gamble'
p215
I3
sS'pizza'
p216
I2
sS'gaming'
p217
I1
sS'poker'
p218
I1
sS'less'
p219
I1
sS'coined'
p220
I1
sS'after'
p221
I9
sS'shores'
p222
I1
sS'barney'
p223
I1
sS'lay'
p224
I1
sS'ove'
p225
I1
sS'president'
p226
I27
sS'dumbo'
p227
I1
sS'law'
p228
I5
sS'arch'
p229
I2
sS'types'
p230
I4
sS'las'
p231
I1
sS'purchase'
p232
I1
sS'sioux'
p233
I2
sS'procter'
p234
I3
sS'wins'
p235
I1
sS'attracts'
p236
I1
sS'headquarters'
p237
I3
sS'fictional'
p238
I1
sS'ballcock'
p239
I1
sS'tulip'
p240
I1
sS'green'
p241
I3
sS'1872'
p242
I1
sS'enter'
p243
I1
sS'diary'
p244
I1
sS'lindbergh'
p245
I1
sS'democratic'
p246
I2
sS'make'
p247
I9
sS'wine'
p248
I3
sS'operations'
p249
I1
sS'origin'
p250
I10
sS'executed'
p251
I2
sS'office'
p252
I2
sS'deck'
p253
I2
sS'dreamed'
p254
I1
sS'over'
p255
I9
sS'gettysburg'
p256
I2
sS'london'
p257
I2
sS'steel'
p258
I3
sS'keyboard'
p259
I1
sS'oswald'
p260
I1
sS'japan'
p261
I2
sS'mayor'
p262
I1
sS'before'
p263
I5
sS'quarterbacks'
p264
I1
sS'fit'
p265
I10
sS'trying'
p266
I1
sS'crew'
p267
I1
sS'damocles'
p268
I1
sS'401'
p269
I1
sS'personas'
p270
I1
sS'dam'
p271
I1
sS'easier'
p272
I1
sS'theo'
p273
I1
sS'then'
p274
I2
sS'them'
p275
I4
sS'tourist'
p276
I1
sS'carolingian'
p277
I1
sS'weakness'
p278
I1
sS'safe'
p279
I2
sS'finish'
p280
I1
sS'band'
p281
I1
sS'therapy'
p282
I1
sS'they'
p283
I7
sS'schools'
p284
I2
sS'nicois'
p285
I1
sS'tourism'
p286
I1
sS'bricks'
p287
I1
sS'alaska'
p288
I1
sS'shadows'
p289
I1
sS'germanic'
p290
I1
sS'several'
p291
I1
sS'rocky'
p292
I1
sS'comaneci'
p293
I2
sS'edge'
p294
I1
sS'debut'
p295
I1
sS'l'
I2
sS'rocks'
p296
I2
sS'bush'
p297
I1
sS'ventilation'
p298
I1
sS'granted'
p299
I1
sS'organized'
p300
I1
sS'rosemary'
p301
I1
sS'hirohito'
p302
I1
sS'mean'
p303
I19
sS'voyager'
p304
I1
sS'diana'
p305
I1
sS'series'
p306
I3
sS'allah'
p307
I1
sS'diane'
p308
I1
sS'spider'
p309
I2
sS'bowls'
p310
I1
sS'parasites'
p311
I1
sS'literature'
p312
I2
sS'touched'
p313
I1
sS'aids'
p314
I1
sS'saturday'
p315
I2
sS'whip'
p316
I1
sS'by'
p317
I21
sS'sleepless'
p318
I1
sS'won'
p319
I13
sS'videotape'
p320
I1
sS'god'
p321
I5
sS'nicklaus'
p322
I1
sS'thanksgiving'
p323
I1
sS'millennium'
p324
I2
sS'medicine'
p325
I1
sS'got'
p326
I1
sS'newly'
p327
I1
sS'judith'
p328
I1
sS'independence'
p329
I2
sS'horseshoes'
p330
I1
sS'turning'
p331
I1
sS'chapman'
p332
I1
sS'noriega'
p333
I1
sS'dracula'
p334
I1
sS'little'
p335
I6
sS'free'
p336
I5
sS'standard'
p337
I3
sS'small'
p338
I2
sS'putty'
p339
I2
sS'damper'
p340
I1
sS'hand'
p341
I1
sS'heat'
p342
I2
sS'harriet'
p343
I1
sS'certified'
p344
I1
sS'created'
p345
I12
sS'starts'
p346
I2
sS'kashmir'
p347
I1
sS'mcqueen'
p348
I1
sS'filter'
p349
I7
sS'bears'
p350
I2
sS'levels'
p351
I1
sS'signature'
p352
I1
sS'cucumber'
p353
I2
sS'repealed'
p354
I1
sS'loud'
p355
I1
sS'stewart'
p356
I1
sS'features'
p357
I3
sS'economists'
p358
I1
sS'attractions'
p359
I1
sS'rann'
p360
I1
sS'primary'
p361
I1
sS'hearing'
p362
I1
sS'hook'
p363
I2
sS'featured'
p364
I1
sS'langston'
p365
I1
sS'another'
p366
I2
sS'177'
p367
I1
sS'comic'
p368
I4
sS'immortals'
p369
I1
sS'mercury'
p370
I1
sS'anyone'
p371
I1
sS'toy'
p372
I1
sS'annotated'
p373
I1
sS'service'
p374
I2
sS'top'
p375
I7
sS'fiction'
p376
I1
sS'2'
I4
sS'master'
p377
I2
sS'rousseau'
p378
I1
sS'tom'
p379
I1
sS'hollywood'
p380
I2
sS'john'
p381
I12
sS'genesis'
p382
I1
sS'ceiling'
p383
I1
sS'murder'
p384
I1
sS'intestine'
p385
I1
sS'airwaves'
p386
I1
sS'pit'
p387
I1
sS'serve'
p388
I3
sS'took'
p389
I3
sS'japanese'
p390
I2
sS'tokens'
p391
I1
sS'technique'
p392
I1
sS'helen'
p393
I1
sS'mandy'
p394
I1
sS'trek'
p395
I1
sS'domestica'
p396
I1
sS'showed'
p397
I1
sS'hyenas'
p398
I1
sS'older'
p399
I1
sS'tree'
p400
I2
sS'royal'
p401
I1
sS'nations'
p402
I2
sS'shower'
p403
I1
sS'pneumonia'
p404
I1
sS'solomon'
p405
I1
sS'silly'
p406
I2
sS'williams'
p407
I2
sS'historical'
p408
I3
sS'neuromancer'
p409
I1
sS'feeling'
p410
I1
sS'powers'
p411
I1
sS'bridge'
p412
I3
sS'manned'
p413
I2
sS'sees'
p414
I1
sS'sisley'
p415
I1
sS'whitcomb'
p416
I2
sS'astaire'
p417
I1
sS'ram'
p418
I1
sS'spectrum'
p419
I1
sS'drip'
p420
I1
sS'talking'
p421
I1
sS'seed'
p422
I1
sS'shrubs'
p423
I1
sS'appear'
p424
I1
sS'contents'
p425
I2
sS'ray'
p426
I1
sS'triangle'
p427
I2
sS'forced'
p428
I1
sS'1968'
p429
I1
sS'1969'
p430
I2
sS'1964'
p431
I1
sS'1965'
p432
I2
sS'1966'
p433
I1
sS'responsible'
p434
I1
sS'1960'
p435
I1
sS'snow'
p436
I2
sS'1962'
p437
I1
sS'bicornate'
p438
I1
sS'causing'
p439
I1
sS'chess'
p440
I2
sS'forces'
p441
I1
sS'philadelphia'
p442
I1
sS'maiden'
p443
I1
sS'shall'
p444
I1
sS'viscosity'
p445
I1
sS'maris'
p446
I1
sS'victoria'
p447
I2
sS'stardom'
p448
I1
sS'germany'
p449
I3
sS'letter'
p450
I2
sS'hearts'
p451
I1
sS'coin'
p452
I1
sS'jean'
p453
I3
sS'maria'
p454
I1
sS'zealand'
p455
I2
sS'dummy'
p456
I1
sS'singer'
p457
I1
sS'don'
p458
I3
sS'rogers'
p459
I2
sS'professor'
p460
I2
sS'camp'
p461
I3
sS'flow'
p462
I1
sS'dog'
p463
I6
sS'points'
p464
I1
sS'curies'
p465
I1
sS'screensaver'
p466
I1
sS'voting'
p467
I1
sS'scream'
p468
I1
sS'came'
p469
I4
sS'marvel'
p470
I2
sS'saying'
p471
I1
sS'fungal'
p472
I2
sS'bomb'
p473
I3
sS'pope'
p474
I2
sS'skywalker'
p475
I2
sS'queen'
p476
I5
sS'bonnie'
p477
I1
sS'brief'
p478
I1
sS'pops'
p479
I1
sS'attempts'
p480
I1
sS'abilities'
p481
I1
sS'radio'
p482
I1
sS'lethal'
p483
I1
sS'earth'
p484
I8
sS'arrive'
p485
I1
sS'nevada'
p486
I1
sS'intergovernmental'
p487
I1
sS'pick'
p488
I3
sS'orleans'
p489
I1
sS'northeast'
p490
I1
sS'lights'
p491
I1
sS'guidance'
p492
I1
sS'than'
p493
I6
sS'brimstone'
p494
I1
sS'fossils'
p495
I1
sS'theme'
p496
I2
sS'deepest'
p497
I1
sS'rich'
p498
I1
sS'gods'
p499
I1
sS'joyce'
p500
I1
sS'rice'
p501
I1
sS'goalie'
p502
I1
sS'rica'
p503
I1
sS'do'
p504
I85
sS'fontaine'
p505
I1
sS'kimpo'
p506
I1
sS'de'
p507
I5
sS'watch'
p508
I1
sS'dc'
p509
I2
sS'hussain'
p510
I1
sS'neoclassical'
p511
I1
sS'christopher'
p512
I1
sS'tammy'
p513
I1
sS'borrower'
p514
I1
sS'gogh'
p515
I1
sS'dt'
p516
I3
sS'dr'
p517
I1
sS'holland'
p518
I1
sS'54c'
p519
I1
sS'earn'
p520
I1
sS'leia'
p521
I1
sS'bar'
p522
I1
sS'countries'
p523
I7
sS'spokesperson'
p524
I1
sS'fields'
p525
I2
sS'chesapeake'
p526
I1
sS'suffrage'
p527
I1
sS'modern'
p528
I1
sS'bay'
p529
I1
sS'twice'
p530
I1
sS'traversed'
p531
I1
sS'architecture'
p532
I2
sS'shots'
p533
I1
sS'grilled'
p534
I1
sS'crucifixion'
p535
I1
sS'secretary'
p536
I4
sS'disaster'
p537
I1
sS'chihuahuas'
p538
I1
sS'diminutive'
p539
I1
sS'zones'
p540
I1
sS'toes'
p541
I1
sS'hammer'
p542
I1
sS'best'
p543
I12
sS'brazil'
p544
I2
sS'voyage'
p545
I1
sS'said'
p546
I13
sS'draws'
p547
I1
sS'away'
p548
I3
sS'rings'
p549
I1
sS'artificial'
p550
I1
sS'yet'
p551
I1
sS'ringo'
p552
I1
sS'pym'
p553
I1
sS'score'
p554
I2
sS'olympics'
p555
I1
sS'finger'
p556
I1
sS'herb'
p557
I1
sS'babar'
p558
I1
sS'pirate'
p559
I1
sS'rhomboideus'
p560
I1
sS'eunice'
p561
I1
sS'terms'
p562
I1
sS'wears'
p563
I1
sS'nature'
p564
I3
sS'oxidation'
p565
I1
sS'metal'
p566
I1
sS'equals'
p567
I1
sS'toothbrush'
p568
I1
sS'cut'
p569
I1
sS'wear'
p570
I2
sS'news'
p571
I1
sS'motto'
p572
I2
sS'holds'
p573
I3
sS'blasted'
p574
I1
sS'faced'
p575
I2
sS'received'
p576
I3
sS'goddess'
p577
I2
sS'accident'
p578
I1
sS'country'
p579
I25
sS'adventures'
p580
I1
sS'against'
p581
I1
sS'players'
p582
I1
sS'selective'
p583
I1
sS'games'
p584
I6
sS'brigham'
p585
I1
sS'com'
p586
I6
sS'asked'
p587
I3
sS'lockerbie'
p588
I1
sS'ethel'
p589
I1
sS'novelist'
p590
I1
sS'appeared'
p591
I1
sS'character'
p592
I8
sS'betting'
p593
I1
sS'gopher'
p594
I1
sS'seizure'
p595
I1
sS'directions'
p596
I1
sS'canyon'
p597
I2
sS'basque'
p598
I1
sS'pregnancy'
p599
I2
sS'resignation'
p600
I1
sS'hitler'
p601
I5
sS'speak'
p602
I1
sS'bingo'
p603
I1
sS'strong'
p604
I1
sS'sam'
p605
I1
sS'cockroaches'
p606
I1
sS'plantar'
p607
I1
sS'mythological'
p608
I1
sS'three'
p609
I6
sS'been'
p610
I6
sS'commission'
p611
I1
sS'beer'
p612
I3
sS'bees'
p613
I1
sS'diskettes'
p614
I1
sS'stadium'
p615
I1
sS'entered'
p616
I1
sS'lovely'
p617
I1
sS'tallest'
p618
I3
sS'incompetent'
p619
I1
sS'teenager'
p620
I2
sS'website'
p621
I2
sS'life'
p622
I2
sS'attacked'
p623
I1
sS'snap'
p624
I1
sS'substance'
p625
I1
sS'child'
p626
I3
sS'daughter'
p627
I3
sS'tradition'
p628
I1
sS'167'
p629
I1
sS'cartoons'
p630
I1
sS'applied'
p631
I1
sS'east'
p632
I1
sS'tank'
p633
I1
sS'redford'
p634
I1
sS'easter'
p635
I1
sS'originate'
p636
I2
sS'kentucky'
p637
I2
sS'air'
p638
I4
sS'employ'
p639
I1
sS'calcium'
p640
I1
sS'near'
p641
I1
sS'ceilings'
p642
I1
sS'leaves'
p643
I2
sS'voice'
p644
I1
sS'study'
p645
I1
sS'rent'
p646
I2
sS'seven'
p647
I3
sS'pyramid'
p648
I1
sS'fourteenth'
p649
I1
sS'played'
p650
I14
sS'equator'
p651
I1
sS'ip'
p652
I1
sS'chappellet'
p653
I1
sS'it'
p654
I53
sS'ii'
p655
I1
sS'player'
p656
I1
sS'elicit'
p657
I1
sS'traffic'
p658
I1
sS'cone'
p659
I1
sS'in'
p660
I293
sS'madonna'
p661
I1
sS'seattle'
p662
I1
sS'mouse'
p663
I1
sS'crusaders'
p664
I1
sS'marion'
p665
I1
sS'if'
p666
I6
sS'karsh'
p667
I1
sS'bottles'
p668
I1
sS'credit'
p669
I2
sS'patent'
p670
I3
sS'nazi'
p671
I1
sS'yellow'
p672
I3
sS'punctuation'
p673
I1
sS'jerry'
p674
I1
sS'any'
p675
I4
sS'picts'
p676
I1
sS'monarch'
p677
I1
sS'colonies'
p678
I1
sS'cassidey'
p679
I1
sS'european'
p680
I4
sS'wheel'
p681
I2
sS'euv'
p682
I1
sS'raid'
p683
I1
sS'sings'
p684
I3
sS'published'
p685
I2
sS'rail'
p686
I1
sS'rain'
p687
I3
sS'kit'
p688
I3
sS'waterfall'
p689
I1
sS'producers'
p690
I1
sS'deadwood'
p691
I1
sS'characters'
p692
I1
sS'cooktop'
p693
I1
sS'kid'
p694
I4
sS'kept'
p695
I2
sS'lucas'
p696
I1
sS'1979'
p697
I1
sS'1978'
p698
I1
sS'los'
p699
I1
sS'charlie'
p700
I3
sS'1973'
p701
I1
sS'1972'
p702
I2
sS'1971'
p703
I1
sS'ocean'
p704
I3
sS'maximo'
p705
I1
sS'rome'
p706
I1
sS'greatest'
p707
I2
sS'mother'
p708
I5
sS'claims'
p709
I2
sS'the'
p710
I1045
sS'camps'
p711
I1
sS'musical'
p712
I5
sS'left'
p713
I2
sS'snowman'
p714
I1
sS'thucydides'
p715
I1
sS'just'
p716
I3
sS'sentence'
p717
I1
sS'hearst'
p718
I1
sS'basophobic'
p719
I1
sS'verses'
p720
I1
sS'palpatine'
p721
I1
sS'grader'
p722
I1
sS'battles'
p723
I1
sS'human'
p724
I1
sS'facts'
p725
I1
sS'yes'
p726
I1
sS'portrayed'
p727
I12
sS'adding'
p728
I1
sS'enters'
p729
I1
sS'hills'
p730
I1
sS'elm'
p731
I1
sS'acetylsalicylic'
p732
I1
sS'photographer'
p733
I1
sS'assassination'
p734
I1
sS'had'
p735
I7
sS'boston'
p736
I1
sS'cognac'
p737
I1
sS'board'
p738
I4
sS'cowardly'
p739
I1
sS'johnnie'
p740
I1
sS'contestant'
p741
I1
sS'has'
p742
I32
sS'julie'
p743
I1
sS'gave'
p744
I1
sS'viking'
p745
I1
sS'packin'
p746
I1
sS'gustav'
p747
I1
sS'casting'
p748
I1
sS'hermitage'
p749
I1
sS'africa'
p750
I4
sS'sussex'
p751
I1
sS'capp'
p752
I2
sS'possible'
p753
I2
sS'tear'
p754
I1
sS'mozambique'
p755
I1
sS'unification'
p756
I1
sS'opener'
p757
I1
sS'birth'
p758
I2
sS'judge'
p759
I1
sS'replace'
p760
I1
sS'burnt'
p761
I1
sS'advanced'
p762
I1
sS'cinzano'
p763
I1
sS'shoulder'
p764
I1
sS'covrefeu'
p765
I1
sS'exxon'
p766
I1
sS'bobby'
p767
I1
sS'55'
p768
I1
sS'bph'
p769
I1
sS'alice'
p770
I1
sS'securities'
p771
I1
sS'cooler'
p772
I2
sS'offices'
p773
I1
sS'mosquito'
p774
I2
sS'night'
p775
I5
sS'bunch'
p776
I1
sS'security'
p777
I3
sS'bergeres'
p778
I1
sS'www'
p779
I3
sS'right'
p780
I4
sS'old'
p781
I8
sS'creek'
p782
I1
sS'deal'
p783
I2
sS'people'
p784
I23
sS'stern'
p785
I1
sS'crown'
p786
I1
sS'dead'
p787
I5
sS'born'
p788
I10
sS'stardust'
p789
I1
sS'election'
p790
I2
sS'dear'
p791
I1
sS'advertise'
p792
I1
sS'wwi'
p793
I1
sS'enemies'
p794
I1
sS'friend'
p795
I1
sS'cooper'
p796
I1
sS'rhine'
p797
I1
sS'for'
p798
I121
sS'collect'
p799
I1
sS'fox'
p800
I1
sS'ice'
p801
I1
sS'shakespeare'
p802
I3
sS'cnn'
p803
I6
sS'steps'
p804
I1
sS'carta'
p805
I2
sS'christmas'
p806
I2
sS'espionage'
p807
I1
sS'gandhi'
p808
I1
sS'cord'
p809
I1
sS'columbus'
p810
I2
sS'mixable'
p811
I1
sS'dental'
p812
I1
sS'stefan'
p813
I1
sS'cork'
p814
I3
sS'olsen'
p815
I1
sS'woodrow'
p816
I1
sS'starring'
p817
I3
sS'tribes'
p818
I1
sS'plo'
p819
I2
sS'post'
p820
I1
sS'super'
p821
I4
sS'permitted'
p822
I1
sS'shaken'
p823
I1
sS'meyer'
p824
I1
sS'chapter'
p825
I1
sS'cowboy'
p826
I2
sS'attacks'
p827
I1
sS'months'
p828
I3
sS'o'
I4
sS'costs'
p829
I1
sS'dinner'
p830
I2
sS'coronado'
p831
I1
sS'islands'
p832
I3
sS'slightly'
p833
I1
sS'automatically'
p834
I1
sS'nixon'
p835
I6
sS'nerve'
p836
I1
sS'indians'
p837
I3
sS'facility'
p838
I1
sS'civil'
p839
I1
sS'jellicle'
p840
I1
sS'float'
p841
I1
sS'profession'
p842
I3
sS'tappan'
p843
I1
sS'down'
p844
I2
sS'carafe'
p845
I1
sS'madilyn'
p846
I1
sS'donated'
p847
I1
sS'spores'
p848
I1
sS'1990s'
p849
I1
sS'86ed'
p850
I1
sS'parade'
p851
I1
sS'crowd'
p852
I1
sS'medal'
p853
I1
sS'tennis'
p854
I1
sS'doctorate'
p855
I1
sS'vicks'
p856
I1
sS'gitchee'
p857
I1
sS'fought'
p858
I3
sS'editor'
p859
I2
sS'fraction'
p860
I1
sS'jane'
p861
I2
sS'music'
p862
I2
sS'was'
p863
I234
sS'war'
p864
I15
sS'lowest'
p865
I1
sS'bert'
p866
I1
sS'head'
p867
I4
sS'medium'
p868
I1
sS'form'
p869
I4
sS'landing'
p870
I2
sS'ford'
p871
I2
sS'failure'
p872
I1
sS'hemisphere'
p873
I1
sS'needles'
p874
I1
sS'penned'
p875
I1
sS'county'
p876
I6
sS'removed'
p877
I2
sS'true'
p878
I1
sS'fort'
p879
I1
sS'manatees'
p880
I1
sS'isis'
p881
I1
sS'emil'
p882
I1
sS'crows'
p883
I1
sS'pasternak'
p884
I1
sS'inside'
p885
I2
sS'devices'
p886
I1
sS'turin'
p887
I1
sS'camaro'
p888
I2
sS'gould'
p889
I1
sS'scrabble'
p890
I2
sS'duet'
p891
I2
sS'stages'
p892
I1
sS'generals'
p893
I1
sS'propaganda'
p894
I1
sS'trim'
p895
I1
sS'passenger'
p896
I1
sS'classic'
p897
I2
sS'158'
p898
I1
sS'shia'
p899
I1
sS'everest'
p900
I1
sS"''"
p901
I124
sS'gland'
p902
I1
sS'stanford'
p903
I1
sS'exist'
p904
I2
sS'bogart'
p905
I1
sS'muffins'
p906
I1
sS'ship'
p907
I4
sS'face'
p908
I1
sS'mold'
p909
I1
sS'check'
p910
I1
sS'physical'
p911
I1
sS'nj'
p912
I1
sS'acceptance'
p913
I1
sS'nn'
p914
I12
sS'no'
p915
I3
sS'sunnyside'
p916
I1
sS'stake'
p917
I1
sS'when'
p918
I106
sS'actor'
p919
I12
sS'reality'
p920
I1
sS'tim'
p921
I1
sS'setting'
p922
I2
sS'role'
p923
I4
sS'flintstones'
p924
I2
sS'tie'
p925
I1
sS'hoffman'
p926
I1
sS'eternity'
p927
I1
sS'weir'
p928
I1
sS'klondike'
p929
I1
sS"'s"
p930
I177
sS'brothers'
p931
I2
sS'phoenix'
p932
I1
sS'fairground'
p933
I1
sS'glowsticks'
p934
I1
sS'felt'
p935
I1
sS'wars'
p936
I2
sS'tabs'
p937
I1
sS"'d"
p938
I1
sS'award'
p939
I3
sS'authorities'
p940
I1
sS'died'
p941
I7
sS'scholar'
p942
I1
sS'jones'
p943
I2
sS'faster'
p944
I1
sS'glass'
p945
I1
sS'bottom'
p946
I1
sS'concorde'
p947
I1
sS'daily'
p948
I1
sS'fastener'
p949
I1
sS'vietnam'
p950
I3
sS'almanac'
p951
I1
sS'time'
p952
I17
sS'profits'
p953
I1
sS'songs'
p954
I4
sS'neighbors'
p955
I1
sS'coach'
p956
I2
sS'cincinnati'
p957
I1
sS'chain'
p958
I1
sS'diplomacy'
p959
I1
sS'jogis'
p960
I1
sS'global'
p961
I1
sS'themes'
p962
I1
sS'manager'
p963
I2
sS'mile'
p964
I1
sS'nephew'
p965
I1
sS'skin'
p966
I1
sS'battle'
p967
I7
sS'milo'
p968
I1
sS'chair'
p969
I1
sS'milk'
p970
I2
sS'row'
p971
I1
sS'layers'
p972
I1
sS'1948'
p973
I1
sS'grape'
p974
I1
sS'1942'
p975
I1
sS'1941'
p976
I1
sS'father'
p977
I4
sS'0'
I2
sS'oz'
p978
I1
sS'marks'
p979
I1
sS'must'
p980
I1
sS'veterans'
p981
I1
sS'brown'
p982
I4
sS'cooktops'
p983
I3
sS'1993'
p984
I1
sS'vegas'
p985
I1
sS'farri'
p986
I1
sS'advised'
p987
I1
sS'cook'
p988
I1
sS'join'
p989
I1
sS'hamlet'
p990
I1
sS'minute'
p991
I1
sS'oftentimes'
p992
I1
sS'went'
p993
I1
sS'judaism'
p994
I1
sS'hour'
p995
I2
sS'level'
p996
I2
sS'did'
p997
I98
sS'die'
p998
I6
sS'wakefield'
p999
I1
sS'temple'
p1000
I2
sS'leave'
p1001
I4
sS'item'
p1002
I1
sS'belushi'
p1003
I1
sS'subway'
p1004
I1
sS'team'
p1005
I5
sS'prevent'
p1006
I1
sS'olympic'
p1007
I6
sS'brave'
p1008
I2
sS'says'
p1009
I1
sS'ezra'
p1010
I1
sS'attic'
p1011
I1
sS'dealing'
p1012
I1
sS'discover'
p1013
I1
sS'sign'
p1014
I2
sS'rita'
p1015
I1
sS'colin'
p1016
I2
sS'cost'
p1017
I3
sS'bake'
p1018
I1
sS'chicken'
p1019
I3
sS'afghanistan'
p1020
I1
sS'constitution'
p1021
I3
sS'barbie'
p1022
I1
sS'celebrated'
p1023
I1
sS'havoc'
p1024
I1
sS'uniform'
p1025
I1
sS'current'
p1026
I4
sS'baggins'
p1027
I1
sS'bombing'
p1028
I1
sS'international'
p1029
I5
sS'order'
p1030
I1
sS'badge'
p1031
I1
sS'corn'
p1032
I1
sS'era'
p1033
I1
sS'dwarf'
p1034
I1
sS'hairs'
p1035
I1
sS'muslim'
p1036
I1
sS'french'
p1037
I3
sS'virtues'
p1038
I1
sS'water'
p1039
I7
sS'dubliners'
p1040
I1
sS'baseball'
p1041
I7
sS'groups'
p1042
I1
sS'address'
p1043
I6
sS'alone'
p1044
I1
sS'episode'
p1045
I1
sS'benson'
p1046
I1
sS'box'
p1047
I2
sS'boy'
p1048
I1
sS'cuckoo'
p1049
I1
sS'healthy'
p1050
I1
sS'my'
p1051
I11
sS'commonly'
p1052
I1
sS'bow'
p1053
I1
sS'trinidad'
p1054
I1
sS'cervantes'
p1055
I1
sS'total'
p1056
I1
sS'franklin'
p1057
I1
sS'pictorial'
p1058
I1
sS'birthstone'
p1059
I1
sS'bob'
p1060
I1
sS'doris'
p1061
I1
sS'bog'
p1062
I1
sS'teenage'
p1063
I1
sS'churchill'
p1064
I1
sS'love'
p1065
I5
sS'defensive'
p1066
I1
sS'credited'
p1067
I1
sS'shark'
p1068
I1
sS'marked'
p1069
I1
sS'italians'
p1070
I1
sS'divorce'
p1071
I1
sS'shelley'
p1072
I1
sS'costumed'
p1073
I1
sS'market'
p1074
I4
sS'hermits'
p1075
I1
sS'jan'
p1076
I1
sS'concoct'
p1077
I1
sS'troops'
p1078
I2
sS'paleozoic'
p1079
I1
sS'termed'
p1080
I1
sS'filters'
p1081
I1
sS'give'
p1082
I7
sS'provo'
p1083
I1
sS'sports'
p1084
I4
sS'vineyard'
p1085
I1
sS'territories'
p1086
I1
sS'live'
p1087
I13
sS'arabian'
p1088
I1
sS'andy'
p1089
I2
sS'films'
p1090
I4
sS'sonnets'
p1091
I1
sS'angels'
p1092
I1
sS'scratched'
p1093
I1
sS'rainfall'
p1094
I1
sS'commissioner'
p1095
I1
sS'hooked'
p1096
I1
sS'marbles'
p1097
I1
sS'conductor'
p1098
I1
sS'club'
p1099
I2
sS'clitoris'
p1100
I1
sS'claus'
p1101
I1
sS'chocolate'
p1102
I2
sS'employee'
p1103
I1
sS'slinky'
p1104
I1
sS'beers'
p1105
I3
sS'oop'
p1106
I1
sS'hotpoint'
p1107
I1
sS'caffeinated'
p1108
I1
sS'inhabit'
p1109
I1
sS'mascot'
p1110
I2
sS'fly'
p1111
I2
sS'pageant'
p1112
I1
sS'ibm'
p1113
I1
sS'car'
p1114
I8
sS'somme'
p1115
I1
sS'cap'
p1116
I1
sS'longitude'
p1117
I1
sS'cat'
p1118
I2
sS'soup'
p1119
I1
sS'hardest'
p1120
I1
sS'can'
p1121
I62
sS'dimmable'
p1122
I1
sS'growing'
p1123
I1
sS'cab'
p1124
I1
sS'goodall'
p1125
I2
sS'spy'
p1126
I3
sS'performer'
p1127
I1
sS'viceroy'
p1128
I1
sS'southdowns'
p1129
I1
sS'december'
p1130
I2
sS'winston'
p1131
I1
sS'romanticism'
p1132
I1
sS'expectant'
p1133
I1
sS'stroke'
p1134
I1
sS'konrad'
p1135
I1
sS'dropped'
p1136
I1
sS'council'
p1137
I2
sS'allowed'
p1138
I1
sS'dennis'
p1139
I1
sS'clothing'
p1140
I2
sS'occur'
p1141
I3
sS'redness'
p1142
I1
sS'pink'
p1143
I1
sS'dorsets'
p1144
I1
sS'requirements'
p1145
I1
sS'winter'
p1146
I2
sS'berlin'
p1147
I3
sS'pine'
p1148
I1
sS'write'
p1149
I9
sS'sunday'
p1150
I1
sS'sundance'
p1151
I1
sS'biography'
p1152
I2
sS'fourth'
p1153
I1
sS'elephant'
p1154
I1
sS'rolfe'
p1155
I1
sS'speaks'
p1156
I1
sS'fraze'
p1157
I1
sS'springfield'
p1158
I1
sS'criminal'
p1159
I1
sS'product'
p1160
I6
sS'142'
p1161
I1
sS'explorer'
p1162
I1
sS'cocktail'
p1163
I2
sS'ducats'
p1164
I1
sS'hastings'
p1165
I1
sS'southern'
p1166
I1
sS'accessory'
p1167
I1
sS'anzus'
p1168
I1
sS'mac'
p1169
I1
sS'birthday'
p1170
I1
sS'noise'
p1171
I1
sS'date'
p1172
I4
sS'such'
p1173
I1
sS'flourish'
p1174
I2
sS'grow'
p1175
I2
sS'lifting'
p1176
I1
sS'man'
p1177
I17
sS'golfers'
p1178
I1
sS'commodity'
p1179
I1
sS'conscious'
p1180
I1
sS'ss'
p1181
I1
sS'6th'
p1182
I2
sS'nomadic'
p1183
I1
sS'st'
p1184
I5
sS'tale'
p1185
I2
sS'cascade'
p1186
I1
sS'nebbish'
p1187
I1
sS'so'
p1188
I1
sS'lagoon'
p1189
I1
sS'docklands'
p1190
I1
sS'kurt'
p1191
I1
sS'increase'
p1192
I1
sS'eiffel'
p1193
I1
sS'lsd'
p1194
I1
sS'serving'
p1195
I1
sS'126'
p1196
I1
sS'duke'
p1197
I1
sS'gradual'
p1198
I1
sS'colt'
p1199
I1
sS'years'
p1200
I6
sS'course'
p1201
I3
sS'doodyville'
p1202
I1
sS'counterclockwise'
p1203
I1
sS'coli'
p1204
I1
sS'cold'
p1205
I1
sS'still'
p1206
I1
sS'birds'
p1207
I1
sS'sistine'
p1208
I1
sS'1832'
p1209
I1
sS'group'
p1210
I3
sS'monitor'
p1211
I1
sS'1834'
p1212
I1
sS'interesting'
p1213
I1
sS'sexiest'
p1214
I1
sS'forms'
p1215
I1
sS'maid'
p1216
I1
sS'according'
p1217
I1
sS'dwarfs'
p1218
I1
sS'farmer'
p1219
I1
sS'mckinley'
p1220
I1
sS'mail'
p1221
I2
sS'main'
p1222
I1
sS'norway'
p1223
I1
sS'texas'
p1224
I2
sS'happened'
p1225
I3
sS'gray'
p1226
I1
sS'killer'
p1227
I1
sS'lunch'
p1228
I2
sS'1957'
p1229
I1
sS'1956'
p1230
I1
sS'tails'
p1231
I1
sS'1950'
p1232
I1
sS'caine'
p1233
I1
sS'not'
p1234
I7
sS'now'
p1235
I2
sS'killed'
p1236
I11
sS'nor'
p1237
I1
sS'accommodate'
p1238
I1
sS'term'
p1239
I6
sS'name'
p1240
I68
sS'opera'
p1241
I2
sS'james'
p1242
I4
sS'gal'
p1243
I1
sS'roasts'
p1244
I1
sS'bowling'
p1245
I3
sS'orphans'
p1246
I1
sS'el'
p1247
I3
sS'square'
p1248
I2
sS'fired'
p1249
I1
sS'cyberspace'
p1250
I1
sS'operant'
p1251
I1
sS'cairo'
p1252
I1
sS'shirtwaist'
p1253
I1
sS'cinderslut'
p1254
I1
sS'yeat'
p1255
I1
sS'year'
p1256
I19
sS'territory'
p1257
I1
sS'girl'
p1258
I3
sS'ribavirin'
p1259
I1
sS'tried'
p1260
I1
sS'album'
p1261
I1
sS'living'
p1262
I1
sS'shown'
p1263
I1
sS'costliest'
p1264
I1
sS'intercourse'
p1265
I1
sS'space'
p1266
I7
sS'downhill'
p1267
I1
sS'valdez'
p1268
I1
sS'seriously'
p1269
I1
sS'investigation'
p1270
I1
sS'internet'
p1271
I5
sS'kidnaped'
p1272
I1
sS'squares'
p1273
I1
sS'borg'
p1274
I1
sS'correct'
p1275
I2
sS'shows'
p1276
I1
sS'eagle'
p1277
I1
sS'lag'
p1278
I1
sS'monster'
p1279
I1
sS'cars'
p1280
I2
sS'feynman'
p1281
I1
sS'million'
p1282
I2
sS'hulk'
p1283
I3
sS'romans'
p1284
I1
sS'aerodynamics'
p1285
I1
sS'bayer'
p1286
I1
sS'besides'
p1287
I1
sS'ohio'
p1288
I3
sS'deveopment'
p1289
I1
sS'explorers'
p1290
I1
sS'card'
p1291
I2
sS'care'
p1292
I1
sS'fixed'
p1293
I1
sS'hamed'
p1294
I1
sS'language'
p1295
I5
sS'kuwait'
p1296
I1
sS'nonchlorine'
p1297
I1
sS'british'
p1298
I3
sS'ethology'
p1299
I1
sS'motion'
p1300
I1
sS'turn'
p1301
I3
sS'thine'
p1302
I1
sS'place'
p1303
I8
sS'swing'
p1304
I1
sS'turf'
p1305
I2
sS'promotion'
p1306
I1
sS'think'
p1307
I2
sS'frequent'
p1308
I1
sS'first'
p1309
I74
sS'sprawling'
p1310
I1
sS'bladerunner'
p1311
I1
sS'spoken'
p1312
I3
sS'softball'
p1313
I1
sS'potter'
p1314
I1
sS'one'
p1315
I9
sS'shipyard'
p1316
I1
sS'evaporate'
p1317
I1
sS'americans'
p1318
I2
sS'fast'
p1319
I2
sS'spanish'
p1320
I6
sS'ring'
p1321
I2
sS'fight'
p1322
I1
sS'prince'
p1323
I4
sS'george'
p1324
I4
sS'ripping'
p1325
I1
sS'size'
p1326
I3
sS'sheep'
p1327
I2
sS'city'
p1328
I32
sS'given'
p1329
I1
sS'necessarily'
p1330
I1
sS'sheet'
p1331
I1
sS'silent'
p1332
I2
sS'leverkusen'
p1333
I1
sS'bite'
p1334
I1
sS'breed'
p1335
I1
sS'stocks'
p1336
I1
sS'plastic'
p1337
I2
sS'carson'
p1338
I1
sS'shiver'
p1339
I1
sS'tragic'
p1340
I1
sS'bounty'
p1341
I2
sS'desmond'
p1342
I4
sS'white'
p1343
I6
sS'royce'
p1344
I1
sS'hydrogen'
p1345
I1
sS'speaking'
p1346
I1
sS'mining'
p1347
I1
sS'labianca'
p1348
I1
sS'way'
p1349
I5
sS'mostly'
p1350
I1
sS'that'
p1351
I37
sS'shawn'
p1352
I1
sS'season'
p1353
I2
sS'moscow'
p1354
I1
sS'braun'
p1355
I1
sS'broadcast'
p1356
I1
sS'nipsy'
p1357
I1
sS'shirley'
p1358
I1
sS'thai'
p1359
I1
sS'republic'
p1360
I1
sS'message'
p1361
I1
sS'population'
p1362
I3
sS'11'
p1363
I2
sS'wide'
p1364
I2
sS'television'
p1365
I4
sS'12'
p1366
I3
sS'15'
p1367
I3
sS'14'
p1368
I2
sS'16'
p1369
I1
sS'19'
p1370
I2
sS'18'
p1371
I1
sS'require'
p1372
I1
sS'ventura'
p1373
I2
sS'r'
I2
sS'apples'
p1374
I1
sS'were'
p1375
I24
sS'cards'
p1376
I4
sS'v3900'
p1377
I1
sS'russia'
p1378
I3
sS'browser'
p1379
I1
sS'and'
p1380
I105
sS'gathering'
p1381
I1
sS'register'
p1382
I1
sS'surname'
p1383
I1
sS'san'
p1384
I5
sS'angel'
p1385
I1
sS'antidisestablishmentarianism'
p1386
I1
sS'pro'
p1387
I2
sS'premier'
p1388
I1
sS'turned'
p1389
I3
sS'lice'
p1390
I1
sS'alley'
p1391
I2
sS'akita'
p1392
I1
sS'say'
p1393
I7
sS'himself'
p1394
I3
sS'buried'
p1395
I2
sS'sells'
p1396
I2
sS'saw'
p1397
I3
sS'windsor'
p1398
I2
sS'kevin'
p1399
I1
sS'byzantine'
p1400
I1
sS'greek'
p1401
I4
sS'efficient'
p1402
I1
sS'chessboard'
p1403
I1
sS'malta'
p1404
I1
sS'aeul'
p1405
I1
sS'terrific'
p1406
I1
sS'equipment'
p1407
I1
sS'gotham'
p1408
I1
sS'potential'
p1409
I1
sS'lion'
p1410
I1
sS'take'
p1411
I10
sS'sperm'
p1412
I1
sS'freezer'
p1413
I2
sS'davies'
p1414
I2
sS'begin'
p1415
I7
sS'hoover'
p1416
I1
sS'friz'
p1417
I1
sS'spangled'
p1418
I1
sS'normal'
p1419
I2
sS'tornado'
p1420
I2
sS'price'
p1421
I3
sS'paid'
p1422
I2
sS'detect'
p1423
I1
sS'chocolates'
p1424
I1
sS'america'
p1425
I6
sS'cc'
p1426
I1
sS'lawn'
p1427
I1
sS'amtrak'
p1428
I1
sS'considered'
p1429
I5
sS'average'
p1430
I6
sS'wgd9200sq0'
p1431
I1
sS'drive'
p1432
I2
sS'mourning'
p1433
I1
sS'mrs'
p1434
I2
sS'federal'
p1435
I1
sS'archy'
p1436
I1
sS'professional'
p1437
I1
sS'typically'
p1438
I1
sS'quantity'
p1439
I1
sS'detective'
p1440
I1
sS'shot'
p1441
I4
sS'narragansett'
p1442
I1
sS'show'
p1443
I11
sS'discovered'
p1444
I2
sS'helens'
p1445
I1
sS'obote'
p1446
I1
sS'jolson'
p1447
I2
sS'data'
p1448
I1
sS'line'
p1449
I4
sS'fifth'
p1450
I2
sS'ground'
p1451
I1
sS'gulf'
p1452
I1
sS'title'
p1453
I3
sS'mehitabel'
p1454
I1
sS'dick'
p1455
I3
sS'written'
p1456
I2
sS'crime'
p1457
I1
sS'only'
p1458
I15
sS'marquesas'
p1459
I1
sS'black'
p1460
I11
sS'nadia'
p1461
I2
sS'developed'
p1462
I4
sS'wool'
p1463
I1
sS'carolina'
p1464
I1
sS'beatles'
p1465
I3
sS'closed'
p1466
I1
sS'get'
p1467
I24
sS'samuel'
p1468
I2
sS'moo'
p1469
I1
sS'hoya'
p1470
I1
sS'inuit'
p1471
I1
sS'outlet'
p1472
I1
sS'dye'
p1473
I1
sS'bastille'
p1474
I1
sS'prime'
p1475
I7
sS'regarding'
p1476
I1
sS'resource'
p1477
I1
sS'artist'
p1478
I2
sS'floods'
p1479
I1
sS'busiest'
p1480
I1
sS'median'
p1481
I1
sS'borrow'
p1482
I1
sS'niece'
p1483
I1
sS'morning'
p1484
I1
sS'naked'
p1485
I2
sS'embassy'
p1486
I1
sS'roger'
p1487
I1
sS'apricot'
p1488
I1
sS'tent'
p1489
I1
sS'where'
p1490
I60
sS'16th'
p1491
I1
sS'husband'
p1492
I3
sS'sw2mdca'
p1493
I1
sS'declared'
p1494
I2
sS'beethoven'
p1495
I1
sS'osbourne'
p1496
I1
sS'eriksen'
p1497
I1
sS'seas'
p1498
I1
sS'relative'
p1499
I1
sS'elected'
p1500
I2
sS'college'
p1501
I2
sS'characterstics'
p1502
I1
sS'1926'
p1503
I1
sS'murdered'
p1504
I1
sS'1929'
p1505
I2
sS'sport'
p1506
I5
sS'reputed'
p1507
I1
sS'wonder'
p1508
I1
sS'milton'
p1509
I1
sS'nostrum'
p1510
I1
sS'ways'
p1511
I1
sS'harvey'
p1512
I2
sS'review'
p1513
I2
sS'representatives'
p1514
I1
sS'label'
p1515
I1
sS'cd'
p1516
I1
sS'3'
I5
sS"'re"
p1517
I1
sS'bureau'
p1518
I1
sS'between'
p1519
I7
sS'import'
p1520
I1
sS'reading'
p1521
I1
sS'across'
p1522
I1
sS'advertizing'
p1523
I1
sS'august'
p1524
I1
sS'ligurian'
p1525
I1
sS'marvin'
p1526
I1
sS'style'
p1527
I1
sS'jr'
p1528
I1
sS'killing'
p1529
I1
sS'awards'
p1530
I1
sS'online'
p1531
I2
sS'magna'
p1532
I2
sS'cities'
p1533
I2
sS'come'
p1534
I11
sS'isthmus'
p1535
I1
sS'7x7x4inches'
p1536
I1
sS'postage'
p1537
I1
sS'superstar'
p1538
I1
sS'missions'
p1539
I1
sS'many'
p1540
I59
sS'jericho'
p1541
I1
sS'monk'
p1542
I1
sS'contract'
p1543
I1
sS'prompted'
p1544
I1
sS'tour'
p1545
I3
sS'tout'
p1546
I1
sS'forehand'
p1547
I1
sS'spare'
p1548
I1
sS'railway'
p1549
I2
sS'expression'
p1550
I2
sS'comes'
p1551
I2
sS'affairs'
p1552
I1
sS'cancer'
p1553
I2
sS'firewall'
p1554
I1
sS'nobel'
p1555
I3
sS'period'
p1556
I2
sS'pop'
p1557
I1
sS'61'
p1558
I1
sS'pole'
p1559
I1
sS'nicolo'
p1560
I1
sS'learning'
p1561
I1
sS'ante'
p1562
I1
sS'geese'
p1563
I1
sS'extinct'
p1564
I1
sS'boat'
p1565
I1
sS'specializing'
p1566
I1
sS'mare'
p1567
I1
sS'arts'
p1568
I1
sS'teddy'
p1569
I1
sS'stretch'
p1570
I1
sS'west'
p1571
I5
sS'filmmakers'
p1572
I1
sS'tropical'
p1573
I1
sS'dictator'
p1574
I1
sS'women'
p1575
I3
sS'borders'
p1576
I1
sS'marx'
p1577
I1
sS'mary'
p1578
I2
sS'lawnmower'
p1579
I1
sS'engine'
p1580
I2
sS'fade'
p1581
I1
sS'cobain'
p1582
I1
sS'unsafe'
p1583
I1
sS'formed'
p1584
I1
sS'andrew'
p1585
I1
sS'tiger'
p1586
I2
sS'stephen'
p1587
I1
sS'minister'
p1588
I8
sS'vents'
p1589
I1
sS'extant'
p1590
I1
sS'evidence'
p1591
I1
sS'former'
p1592
I3
sS'pilot'
p1593
I1
sS'case'
p1594
I3
sS'hughes'
p1595
I1
sS'prehistoric'
p1596
I1
sS'these'
p1597
I9
sS'mount'
p1598
I3
sS'cash'
p1599
I3
sS'arnold'
p1600
I2
sS"n't"
p1601
I4
sS'blackhawk'
p1602
I1
sS'newspaper'
p1603
I3
sS'spotlight'
p1604
I1
sS'ulysses'
p1605
I1
sS'canon'
p1606
I1
sS'telephone'
p1607
I3
sS'bros'
p1608
I1
sS'quiet'
p1609
I1
sS'middle'
p1610
I1
sS'gringo'
p1611
I1
sS'tiny'
p1612
I1
sS'degas'
p1613
I1
sS'nile'
p1614
I1
sS'beaver'
p1615
I2
sS'protein'
p1616
I1
sS'fame'
p1617
I3
sS'diseases'
p1618
I1
sS'spaces'
p1619
I1
sS'different'
p1620
I6
sS'classified'
p1621
I1
sS'develop'
p1622
I1
sS'author'
p1623
I7
sS'pay'
p1624
I1
sS'edwin'
p1625
I1
sS'perpetually'
p1626
I1
sS's'
I31
sS'same'
p1627
I2
sS'43rd'
p1628
I1
sS'ya'
p1629
I1
sS'speech'
p1630
I2
sS'nnp'
p1631
I2
sS'events'
p1632
I2
sS'pan'
p1633
I1
sS'week'
p1634
I2
sS'numerals'
p1635
I1
sS'oil'
p1636
I3
sS'closest'
p1637
I2
sS'arctic'
p1638
I1
sS'companion'
p1639
I1
sS'director'
p1640
I2
sS'running'
p1641
I1
sS'fodor'
p1642
I1
sS'vowel'
p1643
I1
sS'six'
p1644
I5
sS'recapture'
p1645
I1
sS'camcorders'
p1646
I1
sS'costa'
p1647
I1
sS'tracking'
p1648
I1
sS'pennsylvania'
p1649
I2
sS'traded'
p1650
I1
sS'rupee'
p1651
I1
sS'without'
p1652
I4
sS'veal'
p1653
I1
sS'bottle'
p1654
I1
sS'dumpty'
p1655
I2
sS'very'
p1656
I1
sS'model'
p1657
I5
sS'modem'
p1658
I1
sS'badger'
p1659
I1
sS'gates'
p1660
I1
sS'sprayed'
p1661
I1
sS'monet'
p1662
I2
sS'ottawa'
p1663
I1
sS'being'
p1664
I6
sS'money'
p1665
I4
sS'collabrative'
p1666
I1
sS'wreaks'
p1667
I1
sS'actress'
p1668
I6
sS'219'
p1669
I1
sS'shouts'
p1670
I1
sS'canonize'
p1671
I1
sS'kill'
p1672
I1
sS'handed'
p1673
I1
sS'harrison'
p1674
I1
sS'co'
p1675
I1
sS'flavor'
p1676
I1
sS'speed'
p1677
I4
sS'barbados'
p1678
I1
sS'death'
p1679
I5
sS'generator'
p1680
I1
sS'thinking'
p1681
I1
sS'rose'
p1682
I2
sS'lender'
p1683
I1
sS'color'
p1684
I9
sS'pickering'
p1685
I2
sS'4'
I1
sS'reach'
p1686
I1
sS'bread'
p1687
I1
sS'ross'
p1688
I1
sS'real'
p1689
I3
sS'psi'
p1690
I1
sS'around'
p1691
I2
sS'rules'
p1692
I1
sS'colony'
p1693
I1
sS'virginia'
p1694
I2
sS'early'
p1695
I1
sS'test'
p1696
I2
sS'dita'
p1697
I1
sS'vacuum'
p1698
I2
sS'world'
p1699
I39
sS'railroad'
p1700
I2
sS'execution'
p1701
I1
sS'lady'
p1702
I3
sS'dare'
p1703
I1
sS'martyrs'
p1704
I1
sS'fortune'
p1705
I2
sS'stranger'
p1706
I1
sS'kennedy'
p1707
I5
sS'faber'
p1708
I1
sS'twin'
p1709
I1
sS'server'
p1710
I1
sS't'
I2
sS'served'
p1711
I8
sS'tower'
p1712
I2
sS'musca'
p1713
I1
sS'satisfactory'
p1714
I1
sS'sids'
p1715
I1
sS'jews'
p1716
I1
sS'isosceles'
p1717
I1
sS'pacific'
p1718
I2
sS'oscars'
p1719
I1
sS"'t"
p1720
I4
sS'lobster'
p1721
I1
sS'brontosauruses'
p1722
I1
sS'stagecoach'
p1723
I1
sS'danube'
p1724
I2
sS'nanometer'
p1725
I1
sS'wiggins'
p1726
I1
sS'caribbean'
p1727
I1
sS'dimensions'
p1728
I3
sS'pecos'
p1729
I1
sS'tube'
p1730
I2
sS'recorded'
p1731
I2
sS'dudley'
p1732
I1
sS'stops'
p1733
I1
sS'moon'
p1734
I4
sS'provides'
p1735
I1
sS'provider'
p1736
I2
sS'paganini'
p1737
I1
sS'reims'
p1738
I2
sS'football'
p1739
I1
sS'wheat'
p1740
I1
sS'power'
p1741
I4
sS'quit'
p1742
I1
sS'equivalent'
p1743
I1
sS'each'
p1744
I1
sS'1933'
p1745
I1
sS'broken'
p1746
I3
sS'medina'
p1747
I1
sS'lynmouth'
p1748
I1
sS'mandrake'
p1749
I1
sS'dumont'
p1750
I1
sS'1939'
p1751
I2
sS'transported'
p1752
I1
sS'throw'
p1753
I1
sS'fondness'
p1754
I1
sS'manufacturer'
p1755
I1
sS'racoon'
p1756
I1
sS'on'
p1757
I87
sS'stone'
p1758
I2
sS'central'
p1759
I3
sS'nafta'
p1760
I1
sS'island'
p1761
I5
sS'industry'
p1762
I1
sS'favorite'
p1763
I2
sS'fein'
p1764
I1
sS'practical'
p1765
I1
sS'muslims'
p1766
I1
sS'stand'
p1767
I10
sS'act'
p1768
I1
sS'bond'
p1769
I1
sS'or'
p1770
I11
sS'road'
p1771
I2
sS'tribe'
p1772
I2
sS'fertile'
p1773
I1
sS'poppins'
p1774
I1
sS'image'
p1775
I1
sS'bullwinkle'
p1776
I1
sS'harness'
p1777
I1
sS'determine'
p1778
I1
sS'einstein'
p1779
I1
sS'valuable'
p1780
I1
sS'yous'
p1781
I1
sS'your'
p1782
I12
sS'newscast'
p1783
I1
sS'log'
p1784
I1
sS'her'
p1785
I7
sS'area'
p1786
I2
sS'there'
p1787
I24
sS'racism'
p1788
I1
sS'sides'
p1789
I1
sS'grange'
p1790
I1
sS'start'
p1791
I6
sS'low'
p1792
I4
sS'stars'
p1793
I3
sS'jaws'
p1794
I3
sS'gehrig'
p1795
I1
sS'valley'
p1796
I1
sS'energy'
p1797
I1
sS'diagnose'
p1798
I1
sS'delilah'
p1799
I1
sS'complete'
p1800
I1
sS'755'
p1801
I1
sS'enough'
p1802
I2
sS'defrost'
p1803
I1
sS'pitcher'
p1804
I1
sS'strikes'
p1805
I1
sS'cabinet'
p1806
I1
sS'shroud'
p1807
I1
sS'gore'
p1808
I2
sS'promote'
p1809
I2
sS'with'
p1810
I44
sS'spice'
p1811
I1
sS'pull'
p1812
I3
sS'embedded'
p1813
I1
sS'monopoly'
p1814
I2
sS'comics'
p1815
I2
sS'appliance'
p1816
I1
sS'taught'
p1817
I1
sS'manuel'
p1818
I1
sS'chomper'
p1819
I1
sS'define'
p1820
I1
sS'agree'
p1821
I1
sS'toilet'
p1822
I1
sS'palate'
p1823
I1
sS'autoimmune'
p1824
I1
sS'lactobacillus'
p1825
I1
sS'johnny'
p1826
I3
sS'taste'
p1827
I1
sS'lint'
p1828
I2
sS'deer'
p1829
I1
sS'sales'
p1830
I1
sS'strips'
p1831
I1
sS'general'
p1832
I5
sS'mormons'
p1833
I2
sS'cbs'
p1834
I1
sS'as'
p1835
I33
sS'at'
p1836
I16
sS'file'
p1837
I1
sS'logo'
p1838
I1
sS'sheath'
p1839
I1
sS'film'
p1840
I11
sS'468'
p1841
I1
sS'innings'
p1842
I1
sS'yogi'
p1843
I1
sS'event'
p1844
I2
sS'field'
p1845
I2
sS'astronaut'
p1846
I2
sS'antimicrobial'
p1847
I1
sS'you'
p1848
I50
sS'trash'
p1849
I1
sS'10'
p1850
I2
sS'poop'
p1851
I1
sS'championship'
p1852
I2
sS'congress'
p1853
I2
sS'students'
p1854
I2
sS'symbol'
p1855
I3
sS'goldfus'
p1856
I1
sS'includes'
p1857
I1
sS'gutenberg'
p1858
I1
sS'neanderthal'
p1859
I1
sS'peak'
p1860
I1
sS'fresh'
p1861
I1
sS'chris'
p1862
I1
sS'revolve'
p1863
I1
sS'chairbound'
p1864
I1
sS'network'
p1865
I1
sS'building'
p1866
I3
sS'ernie'
p1867
I1
sS'wife'
p1868
I2
sS'percentage'
p1869
I3
sS'sewer'
p1870
I1
sS'u'
I30
sS'nelson'
p1871
I1
sS'missouri'
p1872
I2
sS'apparel'
p1873
I1
sS'original'
p1874
I3
sS'all'
p1875
I10
sS'chinese'
p1876
I2
sS'ali'
p1877
I1
sS'caused'
p1878
I3
sS'rascals'
p1879
I3
sS'dollar'
p1880
I1
sS'worms'
p1881
I1
sS'founded'
p1882
I7
sS'disc'
p1883
I1
sS'forged'
p1884
I1
sS'dish'
p1885
I1
sS'settlement'
p1886
I1
sS'children'
p1887
I1
sS'causes'
p1888
I3
sS'apartment'
p1889
I1
sS'ron'
p1890
I1
sS'hunting'
p1891
I2
sS'gymnast'
p1892
I1
sS'wyoming'
p1893
I2
sS'reserve'
p1894
I1
sS'champions'
p1895
I1
sS'riots'
p1896
I1
sS'to'
p1897
I163
sS'nora'
p1898
I1
sS'spain'
p1899
I1
sS'malaysia'
p1900
I2
sS'sound'
p1901
I2
sS'fax'
p1902
I1
sS'woman'
p1903
I11
sS'shipment'
p1904
I1
sS'song'
p1905
I8
sS'far'
p1906
I3
sS'spumante'
p1907
I3
sS'fat'
p1908
I1
sS'billie'
p1909
I1
sS'sons'
p1910
I2
sS'worst'
p1911
I2
sS'bleach'
p1912
I1
sS'frankenstein'
p1913
I1
sS'labor'
p1914
I1
sS'ticket'
p1915
I1
sS'difference'
p1916
I4
sS'ticker'
p1917
I1
sS'washer'
p1918
I5
sS'leads'
p1919
I1
sS'neurological'
p1920
I1
sS'heaven'
p1921
I1
sS'cable'
p1922
I1
sS'accompanying'
p1923
I1
sS'louis'
p1924
I3
sS'list'
p1925
I3
sS'joined'
p1926
I1
sS'sang'
p1927
I3
sS'renown'
p1928
I1
sS'harry'
p1929
I1
sS'gaulle'
p1930
I1
sS'mammal'
p1931
I1
sS'wealthiest'
p1932
I1
sS'louie'
p1933
I2
sS'abbreviated'
p1934
I1
sS'titled'
p1935
I5
sS'ten'
p1936
I1
sS'195'
p1937
I1
sS'197'
p1938
I1
sS'paso'
p1939
I1
sS'grabs'
p1940
I1
sS'tee'
p1941
I1
sS'193'
p1942
I1
sS'orinoco'
p1943
I1
sS'rate'
p1944
I1
sS'design'
p1945
I2
sS'lawyer'
p1946
I5
sS'pass'
p1947
I2
sS'mill'
p1948
I1
sS'what'
p1949
I630
sS'swampy'
p1950
I1
sS'barrier'
p1951
I1
sS'richard'
p1952
I4
sS'clock'
p1953
I3
sS'sun'
p1954
I4
sS'section'
p1955
I1
sS'crust'
p1956
I1
sS'caffeine'
p1957
I1
sS'rossner'
p1958
I1
sS'witnesses'
p1959
I1
sS'importer'
p1960
I1
sS'garth'
p1961
I1
sS'nurse'
p1962
I1
sS'hijacked'
p1963
I1
sS'public'
p1964
I1
sS'movement'
p1965
I1
sS'full'
p1966
I3
sS'christian'
p1967
I1
sS'certainly'
p1968
I1
sS'answers'
p1969
I5
sS'ranger'
p1970
I1
sS'varian'
p1971
I1
sS'operating'
p1972
I1
sS'andrews'
p1973
I2
sS'hawn'
p1974
I1
sS'november'
p1975
I2
sS'commercially'
p1976
I1
sS'contemptible'
p1977
I2
sS'popeye'
p1978
I2
sS'almost'
p1979
I1
sS'bible'
p1980
I5
sS'creeps'
p1981
I1
sS'colored'
p1982
I1
sS'ahead'
p1983
I1
sS'extraordinary'
p1984
I1
sS'inspired'
p1985
I3
sS'jackie'
p1986
I1
sS'comediennes'
p1987
I1
sS'airport'
p1988
I6
sS'social'
p1989
I3
sS'luck'
p1990
I1
sS'conditioning'
p1991
I2
sS'hayworth'
p1992
I1
sS'via'
p1993
I1
sS'followed'
p1994
I3
sS'family'
p1995
I1
sS'buses'
p1996
I1
sS'1946'
p1997
I1
sS'spermologer'
p1998
I1
sS'thatcher'
p1999
I4
sS'screens'
p2000
I1
sS'ask'
p2001
I2
sS'toys'
p2002
I1
sS'whoever'
p2003
I1
sS'pulls'
p2004
I1
sS'florence'
p2005
I3
sS'select'
p2006
I1
sS'languages'
p2007
I1
sS'eye'
p2008
I2
sS'takes'
p2009
I1
sS'bette'
p2010
I1
sS'distinct'
p2011
I1
sS'contains'
p2012
I6
sS'two'
p2013
I16
sS'pearl'
p2014
I2
sS'6'
I1
sS'injury'
p2015
I1
sS'markets'
p2016
I2
sS'minor'
p2017
I2
sS'more'
p2018
I4
sS'horses'
p2019
I1
sS'israel'
p2020
I3
sS'door'
p2021
I3
sS'division'
p2022
I1
sS'company'
p2023
I13
sS'pairs'
p2024
I1
sS'keratoma'
p2025
I1
sS'excuse'
p2026
I1
sS'landed'
p2027
I1
sS'floyd'
p2028
I1
sS'stethoscope'
p2029
I1
sS'broke'
p2030
I1
sS'known'
p2031
I15
sS'mongol'
p2032
I1
sS'mounted'
p2033
I1
sS'producing'
p2034
I1
sS'blobbo'
p2035
I1
sS'ouija'
p2036
I1
sS'hardware'
p2037
I1
sS'fatal'
p2038
I1
sS'vladimir'
p2039
I1
sS'barroom'
p2040
I1
sS'roosevelt'
p2041
I1
sS'dew'
p2042
I1
sS'plea'
p2043
I1
sS'mall'
p2044
I1
sS'nebraska'
p2045
I1
sS'nine'
p2046
I1
sS'sent'
p2047
I1
sS'morgan'
p2048
I1
sS'v'
I2
sS'yemen'
p2049
I1
sS'alyssa'
p2050
I1
sS'nino'
p2051
I1
sS'history'
p2052
I6
sS'stubborn'
p2053
I1
sS'inventor'
p2054
I2
sS'bogs'
p2055
I1
sS'medical'
p2056
I2
sS'pusher'
p2057
I1
sS'share'
p2058
I1
sS'aldous'
p2059
I1
sS'northernmost'
p2060
I1
sS'states'
p2061
I6
sS'doughboys'
p2062
I1
sS'minimum'
p2063
I1
sS'numbers'
p2064
I3
sS'purchased'
p2065
I1
sS'commanded'
p2066
I1
sS'cows'
p2067
I1
sS'sharp'
p2068
I2
sS'airplane'
p2069
I3
sS'scar'
p2070
I1
sS'robinson'
p2071
I2
sS'species'
p2072
I3
sS'hamburgers'
p2073
I1
sS'garden'
p2074
I1
sS'information'
p2075
I6
sS'needs'
p2076
I3
sS'chops'
p2077
I1
sS'hugo'
p2078
I1
sS'ratified'
p2079
I2
sS'wolfsheim'
p2080
I1
sS'sacred'
p2081
I1
sS'browns'
p2082
I2
sS'creature'
p2083
I1
sS'plant'
p2084
I3
sS'ft'
p2085
I1
sS'bacall'
p2086
I2
sS'notre'
p2087
I1
sS'weaknesses'
p2088
I1
sS'headquartered'
p2089
I1
sS'oilers'
p2090
I1
sS'santa'
p2091
I1
sS'rosanne'
p2092
I1
sS'revolutions'
p2093
I1
sS'rosanna'
p2094
I1
sS'polynesian'
p2095
I1
sS'coming'
p2096
I2
sS'costner'
p2097
I1
sS'bloom'
p2098
I1
sS'a'
I232
sS'pilots'
p2099
I1
sS'enzymes'
p2100
I1
sS'doctor'
p2101
I1
sS'bugs'
p2102
I2
sS'footed'
p2103
I1
sS'broadcasting'
p2104
I2
sS'distributions'
p2105
I1
sS'banks'
p2106
I1
sS'shorn'
p2107
I1
sS'mortem'
p2108
I1
sS'egg'
p2109
I2
sS'playing'
p2110
I1
sS'patio'
p2111
I1
sS'pans'
p2112
I1
sS'hm5100'
p2113
I1
sS'casablanca'
p2114
I1
sS'laboratory'
p2115
I1
sS'bowl'
p2116
I3
sS'installed'
p2117
I1
sS'held'
p2118
I1
sS'logan'
p2119
I3
sS'paper'
p2120
I3
sS'through'
p2121
I2
sS'committee'
p2122
I2
sS'replies'
p2123
I1
sS'broadway'
p2124
I2
sS'suffer'
p2125
I2
sS'its'
p2126
I10
sS'gymnophobia'
p2127
I1
sS'golfing'
p2128
I1
sS'24'
p2129
I2
sS'entebbe'
p2130
I1
sS'26'
p2131
I2
sS'21'
p2132
I1
sS'22'
p2133
I2
sS'shortstop'
p2134
I1
sS'calluses'
p2135
I1
sS'gerald'
p2136
I1
sS'sale'
p2137
I1
sS'handheld'
p2138
I1
sS'systems'
p2139
I2
sS'founders'
p2140
I1
sS'penn'
p2141
I1
sS'soccer'
p2142
I2
sS'might'
p2143
I1
sS'wingspan'
p2144
I1
sS'ally'
p2145
I1
sS'good'
p2146
I8
sS'return'
p2147
I2
sS'burnding'
p2148
I1
sS'food'
p2149
I4
sS'hunter'
p2150
I1
sS'humans'
p2151
I2
sS'party'
p2152
I2
sS'foot'
p2153
I1
sS'traveled'
p2154
I1
sS'association'
p2155
I1
sS'stopper'
p2156
I1
sS'schoolteacher'
p2157
I1
sS'wash'
p2158
I2
sS'mathematician'
p2159
I1
sS'always'
p2160
I2
sS'drake'
p2161
I1
sS'micro'
p2162
I1
sS'someone'
p2163
I2
sS'stopped'
p2164
I1
sS'predators'
p2165
I1
sS'nonaggression'
p2166
I1
sS'found'
p2167
I3
sS'fairy'
p2168
I1
sS'retrievers'
p2169
I1
sS'marry'
p2170
I1
sS'lantern'
p2171
I1
sS'taft'
p2172
I1
sS'england'
p2173
I4
sS'bends'
p2174
I1
sS'weight'
p2175
I2
sS'noble'
p2176
I1
sS'house'
p2177
I5
sS'fish'
p2178
I1
sS'hard'
p2179
I1
sS'terrence'
p2180
I1
sS'brother'
p2181
I1
sS'alleged'
p2182
I1
sS'extended'
p2183
I2
sS'connect'
p2184
I1
sS'yousuf'
p2185
I1
sS'thing'
p2186
I2
sS'insurance'
p2187
I1
sS'aldrin'
p2188
I1
sS'lovers'
p2189
I2
sS'blacks'
p2190
I1
sS'robert'
p2191
I2
sS'nepal'
p2192
I1
sS'publish'
p2193
I2
sS'seaport'
p2194
I1
sS'longtime'
p2195
I1
sS'7'
I2
sS'whirlpool'
p2196
I2
sS'issue'
p2197
I1
sS'highway'
p2198
I1
sS'conceived'
p2199
I1
sS'earns'
p2200
I1
sS'1920s'
p2201
I2
sS'guess'
p2202
I1
sS'pub'
p2203
I1
sS'isps'
p2204
I1
sS'darius'
p2205
I1
sS'houses'
p2206
I1
sS'reason'
p2207
I1
sS'included'
p2208
I2
sS'brightest'
p2209
I1
sS'members'
p2210
I1
sS'put'
p2211
I2
sS'attendant'
p2212
I1
sS'bulls'
p2213
I1
sS'definition'
p2214
I4
sS'dishwasher'
p2215
I3
sS'prophet'
p2216
I3
sS'sitcom'
p2217
I2
sS'americas'
p2218
I1
sS'american'
p2219
I23
sS'w'
I4
sS'leading'
p2220
I3
sS'sheika'
p2221
I1
sS'castle'
p2222
I1
sS'blush'
p2223
I1
sS'copper'
p2224
I1
sS'major'
p2225
I4
sS'superbowl'
p2226
I1
sS'statue'
p2227
I1
sS'probability'
p2228
I1
sS'wilder'
p2229
I1
sS'number'
p2230
I7
sS'valentine'
p2231
I1
sS'feet'
p2232
I4
sS'dust'
p2233
I1
sS'drier'
p2234
I1
sS'done'
p2235
I2
sS'elk'
p2236
I1
sS'1870'
p2237
I1
sS'600'
p2238
I1
sS'miss'
p2239
I3
sS'corporal'
p2240
I1
sS'razor'
p2241
I1
sS'horse'
p2242
I5
sS'temperature'
p2243
I2
sS'automobile'
p2244
I1
sS'5th'
p2245
I1
sS'stalled'
p2246
I1
sS'diameter'
p2247
I1
sS'abolished'
p2248
I1
sS'least'
p2249
I1
sS'cartoon'
p2250
I4
sS'paint'
p2251
I2
sS'regulation'
p2252
I1
sS'station'
p2253
I1
sS'pheonix'
p2254
I1
sS'saint'
p2255
I1
sS'185'
p2256
I1
sS'mama'
p2257
I1
sS'relationship'
p2258
I2
sS'behind'
p2259
I2
sS'circumnavigator'
p2260
I1
sS'hotel'
p2261
I1
sS'park'
p2262
I4
sS'villi'
p2263
I1
sS'dentist'
p2264
I2
sS'part'
p2265
I5
sS'jordan'
p2266
I1
sS'187s'
p2267
I1
sS'doctors'
p2268
I1
sS'believe'
p2269
I5
sS'corpus'
p2270
I2
sS'fred'
p2271
I2
sS'surfboard'
p2272
I1
sS'king'
p2273
I10
sS'kind'
p2274
I9
sS'b'
I2
sS'inducted'
p2275
I1
sS'double'
p2276
I2
sS'heavyweight'
p2277
I1
sS'dogs'
p2278
I1
sS'hooligans'
p2279
I1
sS'architect'
p2280
I1
sS'supposed'
p2281
I1
sS'dane'
p2282
I1
sS'filthiest'
p2283
I1
sS'ousted'
p2284
I1
sS'colour'
p2285
I1
sS'dana'
p2286
I1
sS'booth'
p2287
I1
sS'cleaner'
p2288
I1
sS'indonesia'
p2289
I1
sS'budweis'
p2290
I1
sS'steakburgers'
p2291
I1
sS'antarctica'
p2292
I1
sS'contest'
p2293
I1
sS'concentration'
p2294
I1
sS'aged'
p2295
I1
sS'sell'
p2296
I1
sS'lie'
p2297
I1
sS'wilson'
p2298
I1
sS'built'
p2299
I5
sS'dancing'
p2300
I1
sS'trip'
p2301
I1
sS'self'
p2302
I1
sS'scotland'
p2303
I1
sS'also'
p2304
I2
sS'caesar'
p2305
I2
sS'folk'
p2306
I1
sS'solve'
p2307
I1
sS'knobs'
p2308
I2
sS'rhodes'
p2309
I1
sS'play'
p2310
I8
sS'electric'
p2311
I5
sS'retired'
p2312
I1
sS'singles'
p2313
I1
sS'albert'
p2314
I1
sS'eruption'
p2315
I1
sS'macy'
p2316
I1
sS'most'
p2317
I34
sS'plan'
p2318
I1
sS'significant'
p2319
I2
sS'nothing'
p2320
I1
sS'seasons'
p2321
I1
sS'eskimo'
p2322
I1
sS'sarge'
p2323
I1
sS'measured'
p2324
I1
sS'korea'
p2325
I1
sS'stands'
p2326
I2
sS'constructed'
p2327
I2
sS'bug'
p2328
I1
sS'windows'
p2329
I1
sS'clear'
p2330
I1
sS'sometimes'
p2331
I3
sS'cover'
p2332
I3
sS'rockefeller'
p2333
I1
sS'artemis'
p2334
I1
sS'humbert'
p2335
I1
sS'clean'
p2336
I1
sS'anthem'
p2337
I1
sS'skein'
p2338
I1
sS'physics'
p2339
I1
sS'bulletin'
p2340
I1
sS'thomas'
p2341
I1
sS'golf'
p2342
I4
sS'phenomenon'
p2343
I1
sS'gold'
p2344
I3
sS'danza'
p2345
I1
sS'tuner'
p2346
I1
sS'nasdaq'
p2347
I1
sS'cds'
p2348
I1
sS'find'
p2349
I22
sS'occupation'
p2350
I2
sS'indicator'
p2351
I1
sS'1912'
p2352
I1
sS'copyright'
p2353
I1
sS'condor'
p2354
I1
sS'writer'
p2355
I2
sS'viagra'
p2356
I1
sS'randy'
p2357
I6
sS'removable'
p2358
I1
sS'equity'
p2359
I1
sS'8'
I2
sS'circle'
p2360
I2
sS'bernstein'
p2361
I1
sS'begins'
p2362
I1
sS'intractable'
p2363
I1
sS'his'
p2364
I22
sS'hit'
p2365
I4
sS'luke'
p2366
I2
sS'banned'
p2367
I1
sS'referees'
p2368
I1
sS'famous'
p2369
I10
sS'courage'
p2370
I1
sS'fastest'
p2371
I5
sS'shared'
p2372
I1
sS'combinations'
p2373
I1
sS'during'
p2374
I8
sS'silk'
p2375
I1
sS'banner'
p2376
I1
sS'him'
p2377
I2
sS'merchandise'
p2378
I1
sS'enemy'
p2379
I2
sS'wallbanger'
p2380
I1
sS'cry'
p2381
I1
sS'remove'
p2382
I3
sS'perfume'
p2383
I1
sS'shoplifts'
p2384
I1
sS'common'
p2385
I5
sS'vincent'
p2386
I1
sS'river'
p2387
I10
sS'wrote'
p2388
I19
sS'approaching'
p2389
I1
sS'bars'
p2390
I1
sS'set'
p2391
I1
sS'art'
p2392
I3
sS'guys'
p2393
I1
sS'creator'
p2394
I2
sS'intelligence'
p2395
I1
sS'see'
p2396
I3
sS'trilogy'
p2397
I1
sS'bare'
p2398
I1
sS'are'
p2399
I98
sS'sea'
p2400
I4
sS'tender'
p2401
I1
sS'portrait'
p2402
I1
sS'project'
p2403
I2
sS'revolution'
p2404
I2
sS'pokemon'
p2405
I1
sS'movie'
p2406
I16
sS'burner'
p2407
I1
sS'wop'
p2408
I1
sS'crossword'
p2409
I1
sS'fans'
p2410
I1
sS'smallest'
p2411
I1
sS'various'
p2412
I1
sS'checkmate'
p2413
I1
sS'flame'
p2414
I2
sS'burned'
p2415
I1
sS'conditions'
p2416
I1
sS'funeral'
p2417
I1
sS'15th'
p2418
I1
sS'available'
p2419
I2
sS'solo'
p2420
I1
sS'latin'
p2421
I4
sS'criminologist'
p2422
I1
sS'iron'
p2423
I1
sS'sold'
p2424
I3
sS'succeed'
p2425
I1
sS'coffee'
p2426
I1
sS'conservationist'
p2427
I1
sS'betrayed'
p2428
I1
sS'prelude'
p2429
I1
sS'bone'
p2430
I1
sS'bronze'
p2431
I1
sS'ads'
p2432
I1
sS'league'
p2433
I4
sS'c'
I4
sS'last'
p2434
I9
sS'keaton'
p2435
I1
sS'thor'
p2436
I1
sS'sensitive'
p2437
I1
sS'roman'
p2438
I2
sS'became'
p2439
I2
sS'buzz'
p2440
I1
sS'finds'
p2441
I1
sS'load'
p2442
I1
sS'flies'
p2443
I1
sS'airborne'
p2444
I1
sS'danced'
p2445
I1
sS'hackers'
p2446
I1
sS'point'
p2447
I3
sS'battery'
p2448
I1
sS'sweet'
p2449
I2
sS'acted'
p2450
I2
sS'community'
p2451
I2
sS'tennessee'
p2452
I1
sS'church'
p2453
I2
sS'vessel'
p2454
I1
sS'throughout'
p2455
I1
sS'expensive'
p2456
I1
sS'belt'
p2457
I1
sS'pr'
p2458
I1
sS'nominee'
p2459
I1
sS'instrument'
p2460
I3
sS'stamp'
p2461
I2
sS'create'
p2462
I2
sS'strings'
p2463
I1
sS'convicted'
p2464
I1
sS'whom'
p2465
I4
sS'dropping'
p2466
I1
sS'pf'
p2467
I1
sS'ireland'
p2468
I2
sS'topophobic'
p2469
I1
sS'brick'
p2470
I1
sS'assassinated'
p2471
I2
sS'dame'
p2472
I1
sS'imam'
p2473
I1
sS'affectionate'
p2474
I1
sS'dialogue'
p2475
I1
sS'lived'
p2476
I5
sS'flight'
p2477
I4
sS'champion'
p2478
I2
sS'gay'
p2479
I1
sS'bulgaricus'
p2480
I1
sS'fire'
p2481
I5
sS'honorary'
p2482
I2
sS'wet'
p2483
I1
sS'gas'
p2484
I7
sS'39'
p2485
I1
sS'amphibians'
p2486
I1
sS'else'
p2487
I1
sS'anthony'
p2488
I1
sS'fund'
p2489
I1
sS'races'
p2490
I1
sS'lives'
p2491
I5
sS'liver'
p2492
I2
sS'1866'
p2493
I1
sS'plants'
p2494
I1
sS'heavier'
p2495
I1
sS'look'
p2496
I4
sS'bill'
p2497
I4
sS'garfield'
p2498
I1
sS'governor'
p2499
I4
sS'receive'
p2500
I1
sS'while'
p2501
I2
sS'replaced'
p2502
I1
sS'match'
p2503
I1
sS'pearls'
p2504
I1
sS'frickett'
p2505
I1
sS'robin'
p2506
I2
sS'loop'
p2507
I1
sS'infront'
p2508
I1
sS'miles'
p2509
I2
sS'kingdom'
p2510
I1
sS'pound'
p2511
I2
sS'jpl'
p2512
I1
sS'century'
p2513
I6
sS'cents'
p2514
I1
sS'calculator'
p2515
I1
sS'motors'
p2516
I1
sS'fiedler'
p2517
I1
sS'scientology'
p2518
I1
sS'itself'
p2519
I2
sS'greenland'
p2520
I1
sS'triple'
p2521
I1
sS'stoves'
p2522
I1
sS'coliform'
p2523
I1
sS'schwarzenegger'
p2524
I1
sS'santos'
p2525
I1
sS'raiders'
p2526
I1
sS'italy'
p2527
I1
sS'open'
p2528
I1
sS'grant'
p2529
I1
sS'belong'
p2530
I1
sS'galapagos'
p2531
I1
sS'liston'
p2532
I1
sS'read'
p2533
I2
sS'shag'
p2534
I1
sS'widely'
p2535
I1
sS'qigong'
p2536
I2
sS'shan'
p2537
I1
sS'famously'
p2538
I1
sS'daughters'
p2539
I1
sS'commune'
p2540
I1
sS'used'
p2541
I17
sS'shiest'
p2542
I1
sS'mountain'
p2543
I6
sS'cement'
p2544
I1
sS'holidays'
p2545
I1
sS'husbands'
p2546
I1
sS'database'
p2547
I1
sS'viewing'
p2548
I1
sS'000'
p2549
I2
sS'moving'
p2550
I1
sS'purpose'
p2551
I2
sS'peachy'
p2552
I1
sS'nickname'
p2553
I5
sS'stack'
p2554
I1
sS'infamous'
p2555
I1
sS'beanie'
p2556
I1
sS'whores'
p2557
I1
sS'werewolf'
p2558
I2
sS'chickens'
p2559
I1
sS'spent'
p2560
I1
sS'analysis'
p2561
I1
sS'person'
p2562
I6
sS'moby'
p2563
I1
sS'flags'
p2564
I1
sS'nordic'
p2565
I1
sS'swiss'
p2566
I1
sS'organization'
p2567
I3
sS'ozzie'
p2568
I1
sS'yankees'
p2569
I2
sS'pollen'
p2570
I1
sS'ambassador'
p2571
I1
sS'1967'
p2572
I2
sS'lou'
p2573
I1
sS'quarters'
p2574
I1
sS'abbreviation'
p2575
I4
sS'shape'
p2576
I1
sS'scrooge'
p2577
I2
sS'questions'
p2578
I2
sS'using'
p2579
I2
sS'elect'
p2580
I1
sS'zodiacal'
p2581
I1
sS'madding'
p2582
I1
sS'wage'
p2583
I1
sS'hazmat'
p2584
I1
sS'education'
p2585
I3
sS'zadora'
p2586
I1
sS'source'
p2587
I1
sS'governmental'
p2588
I1
sS'internal'
p2589
I1
sS'presidents'
p2590
I1
sS'circumcision'
p2591
I1
sS'ballots'
p2592
I1
sS'reinstate'
p2593
I1
sS'houdini'
p2594
I1
sS'chairman'
p2595
I2
sS'reunified'
p2596
I1
sS'australia'
p2597
I2
sS'march'
p2598
I2
sS'stein'
p2599
I1
sS'big'
p2600
I2
sS'ambassadorial'
p2601
I1
sS'bic'
p2602
I1
sS'wives'
p2603
I1
sS'game'
p2604
I18
sS'macarthur'
p2605
I1
sS'knock'
p2606
I1
sS'calypso'
p2607
I1
sS'd'
I6
sS'glitters'
p2608
I1
sS'pounds'
p2609
I1
sS'chest'
p2610
I1
sS'background'
p2611
I1
sS'marlin'
p2612
I1
sS'miami'
p2613
I1
sS'arthur'
p2614
I2
sS'individuals'
p2615
I1
sS'recycled'
p2616
I2
sS'popular'
p2617
I4
sS'judson'
p2618
I2
sS'godiva'
p2619
I1
sS'often'
p2620
I1
sS'senate'
p2621
I1
sS'goddamn'
p2622
I1
sS'some'
p2623
I9
sS'back'
p2624
I4
sS'phone'
p2625
I1
sS'coney'
p2626
I1
sS'lips'
p2627
I1
sS'martian'
p2628
I1
sS'mighty'
p2629
I1
sS'mideast'
p2630
I1
sS'wonderland'
p2631
I1
sS'godfather'
p2632
I2
sS'delivered'
p2633
I1
sS'ursula'
p2634
I1
sS'boasts'
p2635
I3
sS'proficient'
p2636
I1
sS'seller'
p2637
I1
sS'religion'
p2638
I3
sS'going'
p2639
I2
sS'transplant'
p2640
I1
sS'pea'
p2641
I2
sS'either'
p2642
I1
sS'be'
p2643
I37
sS'run'
p2644
I2
sS'rum'
p2645
I2
sS'phonograph'
p2646
I1
sS'irkutsk'
p2647
I1
sS'lakes'
p2648
I1
sS'mcbeal'
p2649
I1
sS'oem'
p2650
I1
sS'designate'
p2651
I1
sS'carol'
p2652
I1
sS'raider'
p2653
I1
sS'hamblen'
p2654
I1
sS'vaccine'
p2655
I1
sS'russell'
p2656
I1
sS'faith'
p2657
I1
sS'usa'
p2658
I2
sS'cigarette'
p2659
I1
sS'violins'
p2660
I1
sS'stricken'
p2661
I1
sS'range'
p2662
I3
sS'stuart'
p2663
I1
sS'congressman'
p2664
I1
sS'replacement'
p2665
I3
sS'wanna'
p2666
I1
sS'humidifier'
p2667
I3
sS'inspector'
p2668
I1
sS'pollution'
p2669
I1
sS'david'
p2670
I1
sS'jimmy'
p2671
I1
sS'into'
p2672
I9
sS'maudie'
p2673
I1
sS'freleng'
p2674
I1
sS'steven'
p2675
I4
sS'france'
p2676
I4
sS'rolls'
p2677
I1
sS'katie'
p2678
I1
sS'canal'
p2679
I1
sS'sonny'
p2680
I1
sS'jockey'
p2681
I2
sS'story'
p2682
I1
sS'nails'
p2683
I1
sS'question'
p2684
I2
sS'surnames'
p2685
I1
sS'long'
p2686
I5
sS'occupy'
p2687
I1
sS'wonderbra'
p2688
I1
sS'vienna'
p2689
I1
sS'files'
p2690
I1
sS'mountains'
p2691
I1
sS'olestra'
p2692
I1
sS'quetzalcoatl'
p2693
I1
sS'inches'
p2694
I1
sS'jewish'
p2695
I2
sS'atop'
p2696
I1
sS'polio'
p2697
I2
sS'boys'
p2698
I1
sS'reed'
p2699
I1
sS'russian'
p2700
I7
sS'lifesaver'
p2701
I1
sS'injection'
p2702
I1
sS'directed'
p2703
I4
sS'jayne'
p2704
I1
sS'consist'
p2705
I1
sS'grinch'
p2706
I1
sS'up'
p2707
I12
sS'us'
p2708
I4
sS'un'
p2709
I1
sS'boards'
p2710
I1
sS'desire'
p2711
I1
sS'z'
I1
sS'similar'
p2712
I1
sS'called'
p2713
I18
sS'edberg'
p2714
I1
sS'associated'
p2715
I1
sS'pencil'
p2716
I1
sS'm'
I1
sS'flush'
p2717
I1
sS'deadliest'
p2718
I1
sS'doesn'
p2719
I1
sS'associates'
p2720
I1
sS'1899'
p2721
I2
sS'venus'
p2722
I1
sS'coppertop'
p2723
I1
sS'1893'
p2724
I1
sS'rainbow'
p2725
I1
sS'sullen'
p2726
I1
sS'nostradamus'
p2727
I1
sS'gumee'
p2728
I1
sS'endurance'
p2729
I1
sS'peace'
p2730
I1
sS'118'
p2731
I1
sS'transport'
p2732
I1
sS'department'
p2733
I1
sS'assassinate'
p2734
I1
sS'wished'
p2735
I1
sS'draw'
p2736
I1
sS'elements'
p2737
I2
sS'mustard'
p2738
I1
sS'developmental'
p2739
I1
sS'hives'
p2740
I1
sS'oat'
p2741
I1
sS'kansas'
p2742
I1
sS'leno'
p2743
I1
sS'janelle'
p2744
I1
sS'prepared'
p2745
I1
sS'william'
p2746
I5
sS'meaning'
p2747
I6
sS'tenpin'
p2748
I1
sS'caldera'
p2749
I1
sS'wfw9150ww00'
p2750
I1
sS'desert'
p2751
I4
sS'ago'
p2752
I1
sS'land'
p2753
I1
sS'e'
I3
sS'vice'
p2754
I1
sS'established'
p2755
I2
sS'age'
p2756
I2
sS'holes'
p2757
I2
sS'microsoft'
p2758
I2
sS'cookware'
p2759
I1
sS'2005'
p2760
I1
sS'walker'
p2761
I1
sS'mansfield'
p2762
I1
sS'2008'
p2763
I1
sS'menace'
p2764
I1
sS'buffalo'
p2765
I1
sS'once'
p2766
I3
sS'watergate'
p2767
I2
sS'amish'
p2768
I1
sS'iraqi'
p2769
I1
sS'astronauts'
p2770
I2
sS'1855'
p2771
I1
sS'steve'
p2772
I1
sS'proposition'
p2773
I1
sS'go'
p2774
I9
sS'gm'
p2775
I1
sS'golfer'
p2776
I3
sS'backlight'
p2777
I1
sS'lyrics'
p2778
I2
sS'vietnamese'
p2779
I1
sS'peanut'
p2780
I1
sS'wizard'
p2781
I1
sS'young'
p2782
I2
sS'huxley'
p2783
I1
sS'literary'
p2784
I1
sS'does'
p2785
I98
sS'excluded'
p2786
I1
sS'suite'
p2787
I1
sS'maryland'
p2788
I1
sS'include'
p2789
I1
sS'fences'
p2790
I1
sS'scarlett'
p2791
I1
sS'g7'
p2792
I1
sS'stonehenge'
p2793
I1
sS'labels'
p2794
I2
sS'seized'
p2795
I2
sS'g2'
p2796
I1
sS'outside'
p2797
I5
sS'celebrities'
p2798
I1
sS'gina'
p2799
I1
sS'1797'
p2800
I1
sS'acreage'
p2801
I1
sS'renoir'
p2802
I1
sS'felicity'
p2803
I1
sS'octopus'
p2804
I1
sS'tutu'
p2805
I2
sS'harlow'
p2806
I1
sS'northwestern'
p2807
I1
sS'magic'
p2808
I2
sS'harbor'
p2809
I2
sS'joel'
p2810
I1
sS'michael'
p2811
I1
sS'colors'
p2812
I3
sS'try'
p2813
I2
sS'race'
p2814
I1
sS'wheatfield'
p2815
I1
sS'dealt'
p2816
I1
sS'massachusetts'
p2817
I3
sS'barbara'
p2818
I1
sS'ride'
p2819
I2
sS'malick'
p2820
I1
sS'protect'
p2821
I1
sS'frost'
p2822
I1
sS'wrestling'
p2823
I1
sS'crop'
p2824
I1
sS'rivers'
p2825
I1
sS'hose'
p2826
I2
sS'video'
p2827
I4
sS'jude'
p2828
I3
sS'picked'
p2829
I1
sS'hungary'
p2830
I1
sS'abominable'
p2831
I1
sS'acid'
p2832
I2
sS'spaghetti'
p2833
I1
sS'depression'
p2834
I2
sS'victor'
p2835
I1
sS'plays'
p2836
I2
sS'business'
p2837
I1
sS'chicago'
p2838
I3
sS'colonel'
p2839
I1
sS'marketed'
p2840
I1
sS'access'
p2841
I1
sS'19th'
p2842
I4
sS'indian'
p2843
I3
sS'capital'
p2844
I3
sS'nicholas'
p2845
I1
sS'bird'
p2846
I1
sS'nazis'
p2847
I2
sS'body'
p2848
I8
sS'sharks'
p2849
I1
sS'melancholy'
p2850
I1
sS'led'
p2851
I1
sS'lee'
p2852
I2
sS'degree'
p2853
I1
sS'exchange'
p2854
I1
sS'commercial'
p2855
I3
sS'sinn'
p2856
I1
sS'pellegrin'
p2857
I3
sS'objects'
p2858
I2
sS'let'
p2859
I1
sS'sink'
p2860
I3
sS'making'
p2861
I2
sS'luis'
p2862
I1
sS'invented'
p2863
I21
sS'cyclist'
p2864
I1
sS'bibles'
p2865
I1
sS'great'
p2866
I5
sS'trans'
p2867
I1
sS'1932'
p2868
I1
sS'technical'
p2869
I1
sS'involved'
p2870
I2
sS'titanic'
p2871
I2
sS'leaving'
p2872
I1
sS'kilroy'
p2873
I1
sS'vbp'
p2874
I1
sS'products'
p2875
I2
sS'popcorn'
p2876
I1
sS'climb'
p2877
I1
sS'gene'
p2878
I1
sS'makes'
p2879
I8
sS'maker'
p2880
I3
sS'treehouse'
p2881
I1
sS'1936'
p2882
I1
sS'holmes'
p2883
I3
sS'named'
p2884
I6
sS'addresses'
p2885
I1
sS'clark'
p2886
I1
sS'heart'
p2887
I1
sS'duct'
p2888
I1
sS'win'
p2889
I6
sS'confession'
p2890
I1
sS'private'
p2891
I1
sS'names'
p2892
I7
sS'composer'
p2893
I2
sS'duck'
p2894
I1
sS'clockwise'
p2895
I1
sS'singing'
p2896
I3
sS'use'
p2897
I8
sS'from'
p2898
I51
sS'inspiration'
p2899
I1
sS'moorish'
p2900
I1
sS'hudson'
p2901
I1
sS'folies'
p2902
I1
sS'next'
p2903
I2
sS'manufactures'
p2904
I1
sS'vehicle'
p2905
I1
sS'butler'
p2906
I2
sS'stage'
p2907
I2
sS'cheeks'
p2908
I1
sS'sort'
p2909
I1
sS'puccini'
p2910
I1
sS'polenta'
p2911
I2
sS'untamed'
p2912
I1
sS'started'
p2913
I1
sS'halloween'
p2914
I1
sS'rarest'
p2915
I1
sS'sister'
p2916
I2
sS'infection'
p2917
I2
sS'loco'
p2918
I1
sS'meant'
p2919
I1
sS'train'
p2920
I2
sS'rabbit'
p2921
I1
sS'baby'
p2922
I6
sS'antichrist'
p2923
I1
sS'shostakovich'
p2924
I1
sS'iii'
p2925
I2
sS'appointed'
p2926
I1
sS'whisky'
p2927
I1
sS'account'
p2928
I1
sS'balls'
p2929
I1
sS'animals'
p2930
I4
sS'accurately'
p2931
I1
sS'f'
I6
sS'this'
p2932
I45
sS'athlete'
p2933
I1
sS'pour'
p2934
I1
sS'celsius'
p2935
I1
sS'drill'
p2936
I1
sS'of'
p2937
I369
sS'closing'
p2938
I1
sS'drops'
p2939
I1
sS'disabilities'
p2940
I1
sS'control'
p2941
I2
sS'process'
p2942
I1
sS'etta'
p2943
I1
sS'rode'
p2944
I2
sS'chivington'
p2945
I1
sS'high'
p2946
I1
sS'villain'
p2947
I1
sS'hilton'
p2948
I1
sS'tab'
p2949
I2
sS'sought'
p2950
I1
sS'founding'
p2951
I1
sS'1991'
p2952
I3
sS'native'
p2953
I1
sS'autobiography'
p2954
I2
sS'united'
p2955
I7
sS'powhatan'
p2956
I1
sS'syndrome'
p2957
I1
sS'stole'
p2958
I4
sS'reuter'
p2959
I1
sS'enterprise'
p2960
I1
sS'located'
p2961
I5
sS'winners'
p2962
I1
sS'forest'
p2963
I4
sS'animal'
p2964
I5
sS'instead'
p2965
I1
sS'canfield'
p2966
I1
sS'stock'
p2967
I4
sS'fare'
p2968
I1
sS'cupboard'
p2969
I1
sS'attend'
p2970
I1
sS'stop'
p2971
I3
sS'wallpaper'
p2972
I1
sS'collection'
p2973
I1
sS'dominos'
p2974
I1
sS'paintball'
p2975
I1
sS'kenmore'
p2976
I1
sS'andress'
p2977
I1
sS'spelling'
p2978
I1
sS'dominica'
p2979
I1
sS'piggy'
p2980
I2
sS'emperor'
p2981
I3
sS'daycare'
p2982
I2
sS'light'
p2983
I2
sS'interrupted'
p2984
I1
sS'element'
p2985
I3
sS'wwii'
p2986
I1
sS'chief'
p2987
I1
sS'encyclopedia'
p2988
I1
sS'chevrolet'
p2989
I1
sS'rawhide'
p2990
I1
sS'longest'
p2991
I8
sS'houston'
p2992
I1
sS'boxing'
p2993
I3
sS'producer'
p2994
I1
sS'produces'
p2995
I1
sS'bilbo'
p2996
I1
sS'astronomical'
p2997
I1
sS'wedding'
p2998
I1
sS'produced'
p2999
I3
sS'alliance'
p3000
I1
sS'enclose'
p3001
I1
sS'costume'
p3002
I1
sS'134'
p3003
I1
sS'compatible'
p3004
I1
sS'iguana'
p3005
I1
sS'perfect'
p3006
I1
sS'1'
I14
sS'outer'
p3007
I1
sS'condiment'
p3008
I1
sS'la'
p3009
I2
sS'lo'
p3010
I1
sS'housewife'
p3011
I1
sS'winning'
p3012
I1
sS'permanent'
p3013
I1
sS'degrees'
p3014
I3
sS'yesterdays'
p3015
I1
sS'lp'
p3016
I1
sS'latitude'
p3017
I1
sS'tootsie'
p3018
I1
sS'holiday'
p3019
I1
sS'13b'
p3020
I1
sS'nihilist'
p3021
I1
sS'surrounds'
p3022
I1
sS'washington'
p3023
I3
sS'dan'
p3024
I1
sS'runs'
p3025
I6
sS'hate'
p3026
I1
sS'snake'
p3027
I1
sS'snoopy'
p3028
I1
sS'hands'
p3029
I2
sS'front'
p3030
I1
sS'cage'
p3031
I1
sS'day'
p3032
I13
sS'presidential'
p3033
I2
sS'articles'
p3034
I2
sS'masters'
p3035
I1
sS'airports'
p3036
I1
sS'atari'
p3037
I1
sS'auto'
p3038
I1
sS'tutankhamun'
p3039
I1
sS'warned'
p3040
I1
sS'university'
p3041
I7
sS'nfl'
p3042
I2
sS'billy'
p3043
I2
sS'transmitted'
p3044
I1
sS'betty'
p3045
I1
sS'truth'
p3046
I1
sS'accompanied'
p3047
I1
sS'quixote'
p3048
I1
sS'typewriter'
p3049
I2
sS'warner'
p3050
I1
sS'studios'
p3051
I1
sS'yakutsk'
p3052
I1
sS'doing'
p3053
I1
sS'globe'
p3054
I1
sS'strip'
p3055
I2
sS'spielberg'
p3056
I1
sS'multicolored'
p3057
I1
sS'society'
p3058
I3
sS'books'
p3059
I3
sS'calibrate'
p3060
I1
sS'80'
p3061
I1
sS'marley'
p3062
I1
sS'wander'
p3063
I1
sS'84'
p3064
I1
sS'out'
p3065
I12
sS'butch'
p3066
I1
sS'matt'
p3067
I1
sS'rey'
p3068
I1
sS"'"
I19
sS'bag'
p3069
I1
sS'wolfman'
p3070
I1
sS'rev'
p3071
I1
sS'fathom'
p3072
I1
sS'may'
p3073
I1
sS'erupt'
p3074
I1
sS'arkansas'
p3075
I1
sS'wilding'
p3076
I1
sS'plural'
p3077
I1
sS'red'
p3078
I3
sS'troop'
p3079
I1
sS'arometherapy'
p3080
I1
sS'raise'
p3081
I1
sS'wines'
p3082
I1
sS'rites'
p3083
I2
sS'tested'
p3084
I1
sS'molly'
p3085
I1
sS'mississippi'
p3086
I7
sS'approaches'
p3087
I1
sS'york'
p3088
I5
sS'van'
p3089
I2
sS'philip'
p3090
I1
sS'princess'
p3091
I2
sS'shortest'
p3092
I1
sS'tanker'
p3093
I1
sS'g'
I3
sS'spill'
p3094
I1
sS'dubbed'
p3095
I3
sS'styloid'
p3096
I1
sS'could'
p3097
I5
sS'scars'
p3098
I1
sS'florida'
p3099
I1
sS'times'
p3100
I5
sS'farrow'
p3101
I1
sS'pudding'
p3102
I1
sS'ltf'
p3103
I1
sS'davis'
p3104
I1
sS'humphrey'
p3105
I1
sS'orca'
p3106
I1
sS'south'
p3107
I6
sS'pines'
p3108
I1
sS'third'
p3109
I1
sS'powerful'
p3110
I1
sS'brandenburg'
p3111
I2
sS'owned'
p3112
I1
sS'jesus'
p3113
I2
sS'muhammad'
p3114
I1
sS'ybarra'
p3115
I1
sS'owner'
p3116
I1
sS'awarded'
p3117
I1
sS'sharon'
p3118
I1
sS'lacan'
p3119
I1
sS'monkey'
p3120
I1
sS'sicily'
p3121
I1
sS'festival'
p3122
I1
sS'unknown'
p3123
I1
sS'maurice'
p3124
I1
sS'system'
p3125
I5
sS'relations'
p3126
I1
sS'their'
p3127
I8
sS'attack'
p3128
I1
sS'mao'
p3129
I1
sS'220'
p3130
I1
sS'perfectly'
p3131
I1
sS'bosch'
p3132
I1
sS'tourists'
p3133
I1
sS'abbie'
p3134
I1
sS'beard'
p3135
I1
sS'georgetown'
p3136
I1
sS'academy'
p3137
I3
sS'eenty'
p3138
I1
sS'transistor'
p3139
I1
sS'chemicals'
p3140
I3
sS'muppets'
p3141
I2
sS'screening'
p3142
I1
sS'blind'
p3143
I2
sS'1779'
p3144
I1
sS'marbella'
p3145
I1
sS'loved'
p3146
I1
sS'ben'
p3147
I3
sS'johnson'
p3148
I1
sS'presided'
p3149
I1
sS'karenna'
p3150
I1
sS'recruited'
p3151
I1
sS'infectious'
p3152
I1
sS'bee'
p3153
I2
sS'claim'
p3154
I1
sS'listeners'
p3155
I1
sS'mojave'
p3156
I1
sS'bet'
p3157
I1
sS'serfdom'
p3158
I1
sS'exhibit'
p3159
I1
sS'drills'
p3160
I1
sS'clip'
p3161
I2
sS'fowl'
p3162
I1
sS'inri'
p3163
I1
sS'liner'
p3164
I1
sS'buy'
p3165
I1
sS'have'
p3166
I28
sS'need'
p3167
I3
sS'millionaire'
p3168
I1
sS'border'
p3169
I1
sS'euchre'
p3170
I1
sS'catholic'
p3171
I1
sS'mia'
p3172
I1
sS'downdraft'
p3173
I1
sS'agency'
p3174
I1
sS'parks'
p3175
I1
sS'contact'
p3176
I1
sS'pulaski'
p3177
I1
sS'tirana'
p3178
I1
sS'which'
p3179
I33
sS'fergie'
p3180
I1
sS'truck'
p3181
I1
sS'korean'
p3182
I1
sS'martha'
p3183
I1
sS'soap'
p3184
I2
sS'kalahari'
p3185
I2
sS'cushman'
p3186
I1
sS'kamchatka'
p3187
I1
sS'who'
p3188
I421
sS'hostages'
p3189
I1
sS'auberge'
p3190
I1
sS'combustion'
p3191
I1
sS'connected'
p3192
I1
sS'ht'
p3193
I1
sS'device'
p3194
I1
sS'sally'
p3195
I1
sS'why'
p3196
I17
sS'ishmael'
p3197
I1
sS'stereo'
p3198
I2
sS'rostropovich'
p3199
I1
sS'milano'
p3200
I1
sS'disease'
p3201
I3
sS'enlist'
p3202
I1
sS'looked'
p3203
I1
sS'bjorn'
p3204
I1
sS'pictures'
p3205
I1
sS'five'
p3206
I2
sS'mccarren'
p3207
I1
sS'dena'
p3208
I1
sS'painting'
p3209
I3
sS'alternator'
p3210
I1
sS'tolkien'
p3211
I1
sS'stove'
p3212
I6
sS'charles'
p3213
I3
sS'dbf'
p3214
I1
sS'bring'
p3215
I1
sS'planning'
p3216
I1
sS'parked'
p3217
I1
sS'soldiers'
p3218
I4
sS'fear'
p3219
I14
sS'determined'
p3220
I1
sS'eyes'
p3221
I3
sS'debate'
p3222
I1
sS'decade'
p3223
I1
sS'uprising'
p3224
I1
sS'apollo'
p3225
I1
sS'based'
p3226
I2
sS'earned'
p3227
I1
sS'youngest'
p3228
I1
sS'should'
p3229
I5
sS'betsy'
p3230
I1
sS'planted'
p3231
I1
sS'fuel'
p3232
I2
sS'piano'
p3233
I1
sS'hall'
p3234
I1
sS'boris'
p3235
I1
sS'cube'
p3236
I2
sS'handle'
p3237
I2
sS'cuba'
p3238
I1
sS'beat'
p3239
I2
sS'michigan'
p3240
I1
sS'massacre'
p3241
I1
sS'gfe29hmdaes'
p3242
I1
sS'lucky'
p3243
I1
sS'bear'
p3244
I5
sS'likely'
p3245
I1
sS'aykroyd'
p3246
I1
sS'words'
p3247
I1
sS'wise'
p3248
I1
sS'abby'
p3249
I1
sS'areas'
p3250
I2
sS'following'
p3251
I4
sS'zolotow'
p3252
I1
sS'molybdenum'
p3253
I1
sS'ended'
p3254
I1
sS'h'
I1
sS'married'
p3255
I7
sS'registration'
p3256
I1
sS'she'
p3257
I5
sS'warranty'
p3258
I1
sS'nightingale'
p3259
I1
sS'pissarro'
p3260
I1
sS'gibson'
p3261
I1
sS'europe'
p3262
I1
sS'requirement'
p3263
I1
sS'j'
I2
sS'humpty'
p3264
I2
sS'variations'
p3265
I1
sS'national'
p3266
I4
sS'admonition'
p3267
I1
sS'we'
p3268
I5
sS'computer'
p3269
I6
sS'driveway'
p3270
I1
sS'skateboarding'
p3271
I1
sS'atlantic'
p3272
I2
sS'paracetamol'
p3273
I1
sS'jurassic'
p3274
I1
sS'nuclear'
p3275
I2
sS'nightmare'
p3276
I1
sS'tend'
p3277
I1
sS'state'
p3278
I17
sS'connection'
p3279
I1
sS'rowan'
p3280
I1
sS'correctly'
p3281
I1
sS'neither'
p3282
I1
sS'pistol'
p3283
I1
sS'email'
p3284
I1
sS'bought'
p3285
I2
sS'derogatory'
p3286
I1
sS'nonconsecutive'
p3287
I1
sS'ed11'
p3288
I1
sS'munching'
p3289
I1
sS'hajo'
p3290
I1
sS'jefferson'
p3291
I1
sS'police'
p3292
I1
sS'lawsuit'
p3293
I1
sS'regenerate'
p3294
I1
sS'hits'
p3295
I1
sS'grass'
p3296
I1
sS'wilbur'
p3297
I1
sS'career'
p3298
I3
sS'challengers'
p3299
I1
sS'margaret'
p3300
I1
sS'dogsledding'
p3301
I1
sS'equal'
p3302
I2
sS'goldie'
p3303
I1
sS'rams'
p3304
I1
sS'april'
p3305
I1
sS'admit'
p3306
I1
sS'petrified'
p3307
I1
sS'dryers'
p3308
I1
sS'conquered'
p3309
I1
sS'passing'
p3310
I1
sS'decathlon'
p3311
I1
sS'vent'
p3312
I1
sS'relevant'
p3313
I1
sS'statues'
p3314
I1
sS'opposition'
p3315
I1
sS'wall'
p3316
I5
sS'supreme'
p3317
I1
sS'walk'
p3318
I2
sS'laugh'
p3319
I1
sS'm16'
p3320
I1
sS'oakland'
p3321
I1
sS'picking'
p3322
I2
sS'ad'
p3323
I2
sS'poem'
p3324
I5
sS'gillette'
p3325
I1
sS'swimmer'
p3326
I2
sS'copier'
p3327
I1
sS'copies'
p3328
I1
sS'cent'
p3329
I1
sS'snoogans'
p3330
I1
sS'rhode'
p3331
I1
sS'kahn'
p3332
I1
sS'hawking'
p3333
I1
sS'gaza'
p3334
I1
sS'poet'
p3335
I3
sS'nicolet'
p3336
I1
sS'naples'
p3337
I1
sS'choose'
p3338
I1
sS'zenger'
p3339
I1
sS'stationed'
p3340
I1
sS'patented'
p3341
I2
sS'painted'
p3342
I4
sS'am'
p3343
I2
sS'protanopia'
p3344
I1
sS'defunct'
p3345
I1
sS'al'
p3346
I3
sS'orange'
p3347
I1
sS'angles'
p3348
I1
sS'bull'
p3349
I1
sS'bulb'
p3350
I1
sS'an'
p3351
I22
sS'gunpowder'
p3352
I1
sS'painter'
p3353
I1
sS'homer'
p3354
I1
sS'wood'
p3355
I2
sS'novel'
p3356
I7
sS'laser'
p3357
I1
sS'virtual'
p3358
I1
sS'never'
p3359
I5
sS'will'
p3360
I15
sS'stalin'
p3361
I1
sS'expiration'
p3362
I1
sS'owns'
p3363
I1
sS'wild'
p3364
I1
sS'balance'
p3365
I2
sS'bathtub'
p3366
I1
sS'nabokov'
p3367
I1
sS'chernobyl'
p3368
I1
sS'midwife'
p3369
I1
sS'resident'
p3370
I1
sS'blood'
p3371
I2
sS'site'
p3372
I1
sS'heating'
p3373
I1
sS'lust'
p3374
I1
sS'taiwanese'
p3375
I1
sS'gothic'
p3376
I1
sS'sherlock'
p3377
I1
sS'claimed'
p3378
I2
sS'partner'
p3379
I1
sS'steamboat'
p3380
I1
sS'terrorist'
p3381
I1
sS'280'
p3382
I1
sS'benelux'
p3383
I1
sS'began'
p3384
I1
sS'administration'
p3385
I1
sS'cross'
p3386
I2
sS'member'
p3387
I3
sS'strange'
p3388
I1
sS'dickens'
p3389
I1
sS'largest'
p3390
I16
sS'inch'
p3391
I3
sS'samson'
p3392
I1
sS'fill'
p3393
I1
sS'powell'
p3394
I2
sS'ball'
p3395
I5
sS'columbia'
p3396
I1
sS'cubic'
p3397
I1
sS'promoters'
p3398
I1
sS'zorro'
p3399
I1
sS'appearances'
p3400
I1
sS'drink'
p3401
I6
sS'upon'
p3402
I1
sS'kidnaping'
p3403
I1
sS'student'
p3404
I1
sS'sisters'
p3405
I1
sS'build'
p3406
I2
sS'whale'
p3407
I1
sS'oddsmaker'
p3408
I1
sS'lickin'
p3409
I1
sS'mosaic'
p3410
I1
sS'correspondent'
p3411
I1
sS'off'
p3412
I4
sS'center'
p3413
I3
sS'records'
p3414
I3
sS'i'
I65
sS'weapon'
p3415
I1
sS'doxat'
p3416
I1
sS'well'
p3417
I1
sS'antonio'
p3418
I1
sS'thought'
p3419
I1
sS'command'
p3420
I1
sS'english'
p3421
I6
sS'position'
p3422
I2
sS'muscle'
p3423
I1
sS'soviet'
p3424
I3
sS'guitarist'
p3425
I1
sS'heavily'
p3426
I1
sS'42'
p3427
I1
sS'accurate'
p3428
I1
sS'domestic'
p3429
I1
sS'liked'
p3430
I1
sS'dose'
p3431
I1
sS'alvin'
p3432
I1
sS'nicknamed'
p3433
I2
sS'batteries'
p3434
I1
sS'lincolns'
p3435
I1
sS'folic'
p3436
I1
sS'advertised'
p3437
I1
sS'dakota'
p3438
I2
sS'lauren'
p3439
I2
sS'web'
p3440
I4
sS'bibliography'
p3441
I1
sS'maclaine'
p3442
I1
sS'bremer'
p3443
I1
sS'officially'
p3444
I1
sS'headed'
p3445
I1
sS'patricia'
p3446
I1
sS'1958'
p3447
I1
sS'simple'
p3448
I1
sS'add'
p3449
I1
sS'book'
p3450
I11
sS'nato'
p3451
I1
sS'citizen'
p3452
I3
sS'5'
I1
sS'scoundrel'
p3453
I2
sS'injectors'
p3454
I1
sS'gestapo'
p3455
I1
sS'enclosed'
p3456
I1
sS'tests'
p3457
I1
sS'myth'
p3458
I1
sS'government'
p3459
I2
sS'chancellor'
p3460
I1
sS'famine'
p3461
I1
sS'utah'
p3462
I1
sS'judiciary'
p3463
I1
sS'fats'
p3464
I1
sS'dryer'
p3465
I4
sS'doyle'
p3466
I1
sS'know'
p3467
I3
sS'facial'
p3468
I2
sS'belgium'
p3469
I1
sS'knox'
p3470
I1
sS'fools'
p3471
I1
sS'loss'
p3472
I3
sS'lincoln'
p3473
I1
sS'iberia'
p3474
I1
sS'like'
p3475
I5
sS'success'
p3476
I1
sS'sizes'
p3477
I1
sS'chairs'
p3478
I1
sS'admitted'
p3479
I1
sS'khyber'
p3480
I1
sS'boheme'
p3481
I1
sS'martin'
p3482
I1
sS'become'
p3483
I9
sS'starred'
p3484
I5
sS'conrad'
p3485
I2
sS'soft'
p3486
I5
sS'page'
p3487
I1
sS'italian'
p3488
I2
sS'amendment'
p3489
I4
sS'warmed'
p3490
I1
sS'because'
p3491
I3
sS'classical'
p3492
I3
sS'shea'
p3493
I1
sS'portly'
p3494
I1
sS'alive'
p3495
I1
sS'985'
p3496
I1
sS'hair'
p3497
I3
sS'tony'
p3498
I2
sS'francisco'
p3499
I1
sS'export'
p3500
I3
sS'cleveland'
p3501
I1
sS'home'
p3502
I11
sS'empire'
p3503
I3
sS'peter'
p3504
I3
sS'scares'
p3505
I1
sS'fivepin'
p3506
I1
sS'cliff'
p3507
I1
sS'competitor'
p3508
I1
sS'lead'
p3509
I2
sS'rubik'
p3510
I1
sS'garrett'
p3511
I1
sS'delaware'
p3512
I2
sS'hurricane'
p3513
I1
sS'thank'
p3514
I1
sS'gummed'
p3515
I1
sS'adventuring'
p3516
I1
sS'leader'
p3517
I4
sS'murdock'
p3518
I1
sS'poets'
p3519
I1
sS'blowing'
p3520
I2
sS'journal'
p3521
I2
sS'rock'
p3522
I1
sS'pressure'
p3523
I1
sS'host'
p3524
I3
sS'hiding'
p3525
I1
sS'gained'
p3526
I2
sS'about'
p3527
I11
sS'actual'
p3528
I1
sS'justin'
p3529
I1
sS'extension'
p3530
I2
sS'getting'
p3531
I1
sS'shipping'
p3532
I1
sS'angeles'
p3533
I1
sS'union'
p3534
I4
sS'carrier'
p3535
I1
sS'cranberry'
p3536
I1
sS'tongue'
p3537
I1
sS'introduced'
p3538
I3
sS'swimming'
p3539
I3
sS'marlowe'
p3540
I1
sS'own'
p3541
I2
sS'owe'
p3542
I1
sS'primal'
p3543
I1
sS'catherine'
p3544
I1
sS'chronic'
p3545
I1
sS'weather'
p3546
I1
sS'lung'
p3547
I1
sS'brush'
p3548
I1
sS'female'
p3549
I3
sS'artists'
p3550
I1
sS'consecutively'
p3551
I1
sS'managing'
p3552
I1
sS'bombay'
p3553
I1
sS'yankee'
p3554
I1
sS'hitting'
p3555
I2
sS'1984'
p3556
I2
sS'1985'
p3557
I1
sS'1982'
p3558
I1
sS'1983'
p3559
I1
sS'1980'
p3560
I2
sS'1981'
p3561
I1
sS'stainless'
p3562
I1
sS'museum'
p3563
I1
sS'snyder'
p3564
I1
sS'1989'
p3565
I2
sS'lost'
p3566
I1
sS'much'
p3567
I9
sS'vichy'
p3568
I1
sS'biggest'
p3569
I4
sS'maze'
p3570
I1
sS'breeding'
p3571
I1
sS'rococo'
p3572
I1
sS'woodpecker'
p3573
I2
sS'touted'
p3574
I1
sS'function'
p3575
I2
sS'ghost'
p3576
I1
sS'michelangelo'
p3577
I2
sS'kane'
p3578
I1
sS'north'
p3579
I5
sS'mutiny'
p3580
I2
sS'brand'
p3581
I1
sS'laos'
p3582
I1
sS'but'
p3583
I4
sS'astro'
p3584
I2
sS'insured'
p3585
I1
sS'grate'
p3586
I2
sS'overflow'
p3587
I1
sS'highest'
p3588
I7
sS'memphis'
p3589
I1
sS'eat'
p3590
I3
sS'he'
p3591
I14
sS'count'
p3592
I1
sS'made'
p3593
I18
sS'naseem'
p3594
I1
sS'cells'
p3595
I2
sS'official'
p3596
I2
sS'spacewalk'
p3597
I1
sS'signed'
p3598
I1
sS'record'
p3599
I3
sS'below'
p3600
I1
sS'limit'
p3601
I1
sS'cello'
p3602
I1
sS'nominations'
p3603
I1
sS'piece'
p3604
I1
sS'minutes'
p3605
I2
sS'display'
p3606
I1
sS'dots'
p3607
I1
sS'irish'
p3608
I3
sS'successfully'
p3609
I1
sS'ejaculation'
p3610
I1
sS'resting'
p3611
I1
sS'pia'
p3612
I1
sS'universal'
p3613
I1
sS'penny'
p3614
I1
sS'rubble'
p3615
I1
sS'pig'
p3616
I1
sS'boardwalk'
p3617
I1
sS'dawson'
p3618
I1
sS'shooting'
p3619
I2
sS'domesticated'
p3620
I1
sS'chromosome'
p3621
I1
sS'diego'
p3622
I3
sS'myrtle'
p3623
I2
sS"'ll"
p3624
I3
sS'incredible'
p3625
I2
sS'boop'
p3626
I1
sS'salesman'
p3627
I1
sS'frito'
p3628
I1
sS'percent'
p3629
I1
sS'anopheles'
p3630
I1
sS'illinois'
p3631
I2
sS'dogtown'
p3632
I1
sS'other'
p3633
I5
sS'special'
p3634
I1
sS'unaccounted'
p3635
I1
sS'boob'
p3636
I1
sS'85'
p3637
I1
sS'vermouth'
p3638
I1
sS'adam'
p3639
I1
sS'canada'
p3640
I3
sS'sued'
p3641
I1
sS'quintillion'
p3642
I1
sS'star'
p3643
I16
sS'ears'
p3644
I2
sS'1767'
p3645
I1
sS'bundle'
p3646
I1
sS'pendulum'
p3647
I1
sS'callosum'
p3648
I2
sS'prewitt'
p3649
I1
sS'gatsby'
p3650
I1
sS'dolphins'
p3651
I1
sS'appoint'
p3652
I1
sS'stirred'
p3653
I1
sS'ranks'
p3654
I1
sS'rule'
p3655
I1
sS'flatfish'
p3656
I1
sS'craft'
p3657
I6
sS'dominoes'
p3658
I1
sS'accidents'
p3659
I1
ssS'_mapping'
p3660
(dp3661
g18
I2917
sg19
I2878
sg20
I2832
sg21
I1884
sg22
I3411
sg23
I479
sg24
I269
sg25
I1829
sg26
I1847
sg27
I1341
sg28
I2217
sg29
I2649
sg30
I35
sg31
I3537
sg32
I673
sg33
I2768
sg34
I3396
sg35
I1881
sg36
I1897
sg37
I3296
sg38
I1135
sg39
I1174
sg40
I2171
sg41
I160
sg42
I1127
sg43
I551
sg44
I1867
sg45
I1708
sg46
I1711
sg47
I270
sg48
I2958
sg49
I1430
sg50
I762
sg51
I1855
sg52
I3265
sg53
I1610
sg54
I2092
sg55
I2578
sg56
I1606
sg57
I1153
sg58
I1955
sg59
I1119
sg60
I2940
sg61
I2020
sg62
I3010
sg63
I2605
sg64
I3583
sg65
I3199
sg66
I1705
sg67
I1516
sg68
I3595
sg69
I2616
sg70
I2423
sg71
I2783
sg72
I83
sg73
I906
sg74
I2767
sg75
I3221
sg76
I218
sg77
I3431
sg78
I2716
sg79
I1783
sg80
I1795
sg81
I1801
sg82
I2868
sg83
I1125
sg84
I2911
sg85
I3102
sg86
I2926
sg87
I3549
sg88
I1055
sg89
I2708
sg90
I444
sg91
I1411
sg92
I895
sg93
I1609
sg94
I46
sg95
I2048
sg96
I2405
sg97
I609
sg98
I2801
sg99
I1489
sg100
I1235
sg101
I3498
sg102
I3119
sg103
I964
sg104
I3029
sg105
I1741
sg106
I3268
sg107
I2479
sg108
I2722
sg109
I834
sg110
I3278
sg111
I847
sg112
I2816
sg113
I892
sg114
I774
sS'k'
I427
sg115
I2493
sg116
I789
sg117
I1571
sg118
I2762
sg119
I641
sg120
I3527
sg121
I3045
sg122
I1018
sg123
I2288
sg124
I1316
sg125
I2531
sg126
I2377
sg127
I3197
sg128
I423
sg129
I2806
sg130
I541
sg131
I974
sg132
I1653
sg133
I2455
sg134
I2705
sg135
I1627
sg136
I1888
sg137
I2219
sg138
I1999
sg139
I2721
sg140
I170
sg141
I1186
sg142
I2680
sg143
I318
sg144
I687
sg145
I648
sg146
I702
sg147
I2632
sg148
I1016
sg149
I16
sg150
I590
sg151
I2018
sg152
I2853
sg153
I2594
sg154
I327
sg155
I295
sg156
I1706
sg157
I969
sg158
I2571
sg159
I567
sg160
I1501
sg161
I2659
sg162
I1375
sg163
I723
sg164
I3370
sg165
I989
sg166
I2503
sg167
I371
sg168
I977
sg169
I1805
sg170
I254
sg171
I1916
sg172
I1513
sg173
I1728
sg174
I1736
sg175
I271
sg176
I3125
sg177
I3314
sg178
I2980
sg179
I225
sg180
I3047
sg181
I2350
sg182
I1088
sg183
I375
sg184
I1862
sg185
I2732
sg186
I2095
sg187
I1445
sg188
I1317
sg189
I3311
sg190
I1061
sg191
I1394
sg192
I176
sg193
I1084
sg194
I1415
sg195
I3530
sg196
I1648
sg197
I2552
sg198
I3518
sg199
I1967
sg200
I957
sg201
I1692
sg202
I1684
sg203
I1804
sg204
I3108
sg205
I385
sg206
I2402
sg207
I1456
sg208
I2654
sg209
I169
sg210
I3204
sg211
I2604
sg212
I1019
sg213
I3622
sg214
I1809
sg215
I1602
sg216
I2325
sg217
I775
sg218
I2008
sg219
I3575
sg220
I2084
sg221
I11
sg222
I2586
sg223
I3186
sg224
I1950
sg225
I2026
sg226
I407
sg227
I3360
sg228
I315
sg229
I1348
sg230
I886
sg231
I594
sg232
I3206
sg233
I1665
sg234
I1601
sg235
I3453
sg236
I1170
sg237
I1600
sg238
I1563
sg239
I1064
sg240
I1009
sg241
I571
sg242
I3624
sg243
I3616
sg244
I2003
sg245
I2367
sg246
I2066
sg247
I1669
sg248
I1249
sg249
I2886
sg250
I79
sg251
I2763
sg252
I1734
sg253
I1050
sg254
I838
sg255
I445
sg256
I2169
sg257
I1045
sg258
I2777
sg259
I1422
sg260
I2651
sg261
I2526
sg262
I1898
sg263
I656
sg264
I1539
sg265
I2967
sg266
I2153
sg267
I2045
sg268
I2634
sg269
I426
sg270
I3580
sg271
I2898
sg272
I3048
sg273
I2869
sg274
I1132
sg275
I1975
sg276
I179
sg277
I2877
sg278
I934
sg279
I504
sg280
I1658
sg281
I1936
sg282
I438
sg283
I2337
sg284
I579
sg285
I605
sg286
I2036
sg287
I3172
sg288
I2441
sg289
I221
sg290
I2469
sg291
I3442
sg292
I2663
sg293
I2827
sg294
I3124
sg295
I978
sS'l'
I118
sg296
I1697
sg297
I3620
sg298
I3093
sg299
I2055
sg300
I1854
sg301
I2119
sg302
I2784
sg303
I167
sg304
I2233
sg305
I2855
sg306
I867
sg307
I929
sg308
I1366
sg309
I1778
sg310
I1938
sg311
I1368
sg312
I1956
sg313
I2580
sg314
I93
sg315
I1590
sg316
I3626
sg317
I272
sg318
I1918
sg319
I1937
sg320
I3315
sg321
I1821
sg322
I763
sg323
I3561
sg324
I1505
sg325
I3615
sg326
I1749
sg327
I488
sg328
I1364
sg329
I530
sg330
I3244
sg331
I2823
sg332
I1731
sg333
I2909
sg334
I2224
sg335
I332
sg336
I3042
sg337
I946
sg338
I3025
sg339
I1872
sg340
I3072
sg341
I3373
sg342
I2939
sg343
I1923
sg344
I1613
sg345
I1906
sg346
I2655
sg347
I163
sg348
I1173
sg349
I2966
sg350
I275
sg351
I3011
sg352
I277
sg353
I3380
sg354
I56
sg355
I3121
sg356
I1663
sg357
I231
sg358
I1077
sg359
I180
sg360
I2900
sg361
I2720
sg362
I3484
sg363
I389
sg364
I3
sg365
I2407
sg366
I3408
sg367
I3494
sg368
I1891
sg369
I307
sg12
I0
sg370
I3628
sg371
I3015
sg372
I663
sg373
I67
sg374
I2165
sg375
I891
sg376
I1622
sS'2'
I1378
sg377
I952
sg378
I2870
sg379
I413
sg380
I316
sg381
I131
sg382
I3295
sg383
I3111
sg384
I1562
sg385
I3178
sg386
I2021
sg387
I2676
sg388
I933
sg389
I1836
sg390
I3217
sg391
I74
sg392
I3262
sg393
I2779
sg394
I1673
sg395
I2391
sg396
I192
sg397
I1554
sg398
I3374
sg399
I2983
sg400
I2457
sg401
I2772
sg402
I1149
sg403
I795
sg404
I429
sg405
I2527
sg406
I1871
sg407
I2214
sg408
I290
sg409
I2086
sg410
I2623
sg411
I569
sg412
I1017
sg413
I3532
sg414
I1305
sg415
I1137
sg416
I1179
sg417
I1987
sg418
I813
sg419
I816
sg420
I3079
sg421
I1437
sg422
I1212
sg423
I500
sg424
I2447
sg425
I565
sg426
I584
sg427
I2829
sg428
I2188
sg429
I2719
sg430
I1412
sg431
I1660
sg432
I843
sg433
I1833
sg434
I996
sg435
I493
sg436
I2473
sg437
I2364
sg438
I930
sg439
I1407
sg440
I2173
sg441
I2573
sg442
I1608
sg443
I1029
sg444
I2122
sg445
I1143
sg446
I2644
sg447
I1391
sg448
I1985
sg449
I1709
sg450
I1420
sg451
I3425
sg452
I1363
sg453
I319
sg454
I2071
sg455
I896
sg456
I448
sg457
I2892
sg458
I342
sg459
I1981
sg460
I1160
sg461
I1508
sg462
I188
sg463
I317
sg464
I3145
sg465
I1560
sg466
I3304
sg467
I704
sg468
I442
sg469
I2000
sg470
I2568
sg471
I2300
sg472
I1583
sg473
I1835
sg474
I2344
sg475
I2244
sg476
I1026
sg477
I2513
sg478
I2497
sg479
I2266
sg480
I439
sg481
I2567
sg482
I1953
sg483
I661
sg484
I323
sg485
I2809
sg486
I902
sg487
I2647
sg488
I3018
sg489
I2574
sg490
I3577
sg491
I3112
sg492
I2590
sg493
I2948
sg494
I2519
sg495
I3210
sg496
I941
sg497
I707
sg498
I1990
sg499
I3610
sg500
I3342
sg501
I1674
sg502
I3358
sg503
I2101
sg504
I99
sg505
I2872
sg506
I861
sg507
I404
sg508
I468
sg509
I581
sg510
I2346
sg511
I1812
sg512
I3292
sg513
I2488
sg514
I2308
sg515
I2334
sg516
I1911
sg517
I3581
sg518
I2416
sg519
I1796
sg520
I1946
sg521
I2239
sg522
I564
sg523
I357
sg524
I2399
sg525
I2593
sg526
I3143
sg527
I2785
sg528
I2715
sg529
I3144
sg530
I2341
sg531
I1714
sg532
I246
sg533
I3446
sg534
I2422
sg535
I1037
sg536
I1242
sg537
I42
sg538
I3185
sg539
I574
sg540
I1094
sg541
I794
sg542
I2225
sg543
I372
sg544
I360
sg545
I2058
sg546
I461
sg547
I3284
sg548
I2339
sg549
I874
sg550
I1297
sg551
I373
sg552
I2012
sg553
I3582
sg554
I3148
sg555
I577
sg556
I2738
sg557
I1877
sg558
I920
sg559
I1786
sg560
I1646
sg561
I1245
sg562
I2492
sg563
I153
sg564
I105
sg565
I3633
sg566
I3372
sg567
I3366
sg568
I2011
sg569
I3122
sg570
I1056
sg571
I1585
sg572
I78
sg573
I1438
sg574
I392
sg575
I47
sg576
I326
sg577
I106
sg578
I2907
sg579
I145
sg580
I3152
sg581
I531
sg582
I1356
sg583
I2584
sg584
I685
sg585
I3405
sg586
I19
sg587
I2361
sg588
I3279
sg589
I1030
sg590
I1040
sg591
I980
sg592
I5
sg593
I2098
sg594
I1944
sg595
I2706
sg596
I3230
sg597
I2176
sg598
I3341
sg599
I621
sg600
I2262
sg601
I2220
sg602
I3156
sg603
I294
sg604
I3611
sg605
I2735
sg606
I819
sg607
I853
sg608
I142
sg609
I430
sg610
I904
sg611
I2157
sg612
I642
sg613
I1157
sg614
I1303
sg615
I681
sg616
I529
sg617
I2669
sg618
I549
sg619
I659
sg620
I2193
sg621
I1681
sg622
I1071
sg623
I690
sg624
I3625
sg625
I1284
sg626
I490
sg627
I1369
sg628
I3299
sg629
I3493
sg630
I1792
sg631
I1134
sg632
I1128
sg633
I3109
sg634
I976
sg635
I3459
sg636
I1752
sg637
I1110
sg638
I384
sg639
I1098
sg640
I3205
sg641
I1845
sg642
I3120
sg643
I3024
sg644
I2108
sg645
I2743
sg646
I2005
sg647
I1690
sg648
I2620
sg649
I1866
sg650
I1993
sg651
I1327
sg652
I1449
sg653
I526
sg654
I173
sg655
I2392
sg656
I1800
sg657
I440
sg658
I2432
sg659
I2433
sg660
I75
sg661
I3585
sg662
I1919
sg663
I2848
sg664
I3328
sg665
I3636
sg666
I1290
sg667
I1739
sg668
I626
sg669
I2162
sg670
I1181
sg671
I2039
sg672
I817
sg673
I3601
sg674
I1704
sg675
I2614
sg676
I2278
sg677
I2032
sg678
I3227
sg679
I2127
sg680
I528
sg681
I1052
sg682
I2972
sg683
I3214
sg684
I1900
sg685
I2800
sg686
I250
sg687
I1883
sg688
I2995
sg689
I88
sg690
I3478
sg691
I2009
sg692
I1237
sg693
I2984
sg694
I1177
sg695
I2002
sg696
I2671
sg697
I1216
sg698
I1686
sg699
I3168
sg700
I1995
sg701
I785
sg702
I510
sg703
I2414
sg704
I710
sg705
I1021
sg706
I2381
sg707
I2286
sg708
I519
sg709
I303
sg710
I4
sg711
I3139
sg712
I340
sg713
I1495
sg714
I3422
sg715
I2263
sg716
I397
sg717
I1823
sg718
I2195
sg719
I1165
sg720
I1340
sg721
I2684
sg722
I3603
sg723
I2160
sg724
I3558
sg725
I912
sg726
I3508
sg727
I759
sg728
I1207
sg729
I194
sg730
I1831
sg731
I3273
sg732
I286
sg733
I1737
sg734
I825
sg735
I837
sg736
I2265
sg737
I1086
sg738
I668
sg739
I2536
sg740
I3389
sg741
I791
sg742
I45
sg743
I2754
sg744
I2546
sg745
I2250
sg746
I300
sg747
I968
sg748
I2672
sg749
I1285
sg750
I436
sg751
I2148
sg752
I2155
sg753
I2997
sg754
I2965
sg755
I3557
sg756
I2639
sg757
I2731
sg758
I1279
sg759
I1756
sg760
I2924
sg761
I2523
sg762
I1320
sg763
I2425
sg764
I746
sg765
I960
sg766
I2435
sg767
I2170
sg768
I1458
sg769
I676
sg770
I2180
sg771
I330
sg772
I3378
sg773
I507
sg774
I559
sg775
I1591
sg776
I2355
sg777
I3290
sg778
I2451
sg779
I2615
sg780
I788
sg781
I370
sg782
I1903
sg783
I60
sg784
I730
sg785
I2595
sg786
I2610
sg787
I466
sg788
I489
sg789
I1976
sg790
I2069
sg791
I2146
sg792
I3586
sg793
I3589
sg794
I2259
sg795
I2666
sg796
I1629
sg797
I628
sg798
I95
sg799
I98
sg800
I158
sg801
I848
sg802
I2229
sg803
I474
sg804
I3222
sg805
I2191
sg806
I2410
sg807
I1932
sg808
I1869
sg809
I2922
sg810
I1688
sg811
I562
sg812
I374
sg813
I1717
sg814
I23
sg815
I845
sg816
I1382
sg817
I313
sg818
I3463
sg819
I1632
sg820
I2400
sg821
I1537
sg822
I3359
sg823
I137
sg824
I1763
sg825
I1339
sg826
I123
sg827
I1401
sg828
I432
sS'o'
I514
sg829
I3500
sg830
I2444
sg831
I2017
sg832
I147
sg833
I1024
sg834
I3051
sg835
I1694
sg836
I1405
sg837
I3353
sg838
I1062
sg839
I2168
sg840
I1280
sg841
I1063
sg842
I36
sg843
I2978
sg844
I1222
sg845
I2944
sg846
I1012
sg847
I2274
sg848
I2970
sg849
I1811
sg850
I3166
sg851
I3562
sg852
I2293
sg853
I2637
sg854
I1753
sg855
I1439
sg856
I2974
sg857
I2587
sg858
I972
sg859
I2317
sg860
I1069
sg861
I921
sg862
I1358
sg863
I103
sg864
I377
sg865
I632
sg866
I2112
sg867
I211
sg868
I280
sg869
I18
sg870
I336
sg871
I2134
sg872
I856
sg873
I434
sg874
I3027
sg875
I2306
sg876
I1452
sg877
I3105
sg878
I2315
sg879
I264
sg880
I1611
sg881
I104
sg882
I954
sg883
I2255
sg884
I1617
sg885
I3379
sg886
I776
sg887
I3646
sg888
I1793
sg889
I3535
sg890
I2304
sg891
I3088
sg892
I757
sg893
I2161
sg894
I2597
sg895
I3095
sg896
I249
sg897
I607
sg898
I3492
sg899
I2349
sg900
I889
sg901
I65
sg902
I1720
sg903
I2007
sg904
I139
sg905
I3642
sg906
I1156
sg907
I512
sg908
I2295
sg909
I2969
sg910
I2633
sg911
I1122
sg912
I3584
sg913
I3669
sg914
I582
sg915
I664
sg916
I1447
sg917
I2524
sg918
I193
sg919
I460
sg920
I2678
sg921
I2512
sg922
I1551
sg923
I1940
sg924
I658
sg925
I3367
sg926
I2548
sg927
I965
sg928
I2694
sg929
I1777
sg930
I30
sg931
I1886
sg932
I1797
sg933
I1729
sg934
I1750
sg935
I1226
sg936
I2673
sg937
I3541
sg938
I2668
sg939
I1982
sg940
I2912
sg941
I201
sg942
I3183
sg943
I963
sg944
I3135
sg945
I1696
sg946
I2107
sg947
I1352
sg948
I515
sg949
I1178
sg950
I879
sg951
I2517
sg952
I365
sg953
I2057
sg954
I1418
sg955
I1670
sg956
I1962
sg957
I1176
sg958
I2326
sg959
I1770
sg960
I1799
sg961
I3617
sg962
I1901
sg963
I2235
sg964
I394
sg965
I2700
sg966
I1510
sg967
I422
sg968
I3159
sg969
I2712
sg970
I1210
sg971
I900
sg972
I3509
sg973
I1957
sg974
I2401
sg975
I691
sg976
I1988
sg977
I2245
sS'0'
I1620
sg978
I2539
sg979
I619
sg980
I3356
sg981
I1856
sg982
I1342
sg983
I2941
sg984
I3458
sg985
I595
sg986
I3525
sg987
I2197
sg988
I1450
sg989
I764
sg990
I2370
sg991
I521
sg992
I3354
sg993
I3337
sg994
I491
sg995
I828
sg996
I633
sg997
I28
sg998
I2336
sg999
I183
sg1000
I1844
sg1001
I2260
sg1002
I3114
sg1003
I1588
sg1004
I1433
sg1005
I27
sg1006
I2987
sg1007
I77
sg1008
I2612
sg1009
I2417
sg1010
I2756
sg1011
I255
sg1012
I997
sg1013
I2053
sg1014
I1268
sg1015
I3631
sg1016
I1549
sg1017
I1818
sg1018
I2933
sg1019
I2737
sg1020
I1915
sg1021
I59
sg1022
I2856
sg1023
I1841
sg1024
I3308
sg1025
I2040
sg1026
I1824
sg1027
I233
sg1028
I3276
sg1029
I862
sg1030
I3397
sg1031
I2429
sg1032
I2934
sg1033
I263
sg1034
I818
sg1035
I1459
sg1036
I1874
sg1037
I959
sg1038
I1691
sg1039
I185
sg1040
I2723
sg1041
I29
sg1042
I3596
sg1043
I740
sg1044
I1205
sg1045
I2625
sg1046
I2758
sg1047
I1733
sg1048
I1185
sg1049
I1927
sg1050
I722
sg1051
I25
sg1052
I981
sg1053
I3551
sg1054
I3454
sg1055
I341
sg1056
I3164
sg1057
I2889
sg1058
I3229
sg1059
I1612
sg1060
I924
sg1061
I2747
sg1062
I1163
sg1063
I2185
sg1064
I1656
sg1065
I1162
sg1066
I1768
sg1067
I2299
sg1068
I3176
sg1069
I975
sg1070
I647
sg1071
I3520
sg1072
I2544
sg1073
I3579
sg1074
I1111
sg1075
I1575
sg1076
I1727
sg1077
I999
sg1078
I803
sg1079
I262
sg1080
I3654
sg1081
I3034
sg1082
I1380
sg1083
I2330
sg1084
I349
sg1085
I527
sg1086
I3236
sg1087
I606
sg1088
I1124
sg1089
I2154
sg1090
I2
sg1091
I3324
sg1092
I1996
sg1093
I3096
sg1094
I1746
sg1095
I2329
sg1096
I2622
sg1097
I778
sg1098
I2264
sg1099
I1858
sg1100
I1092
sg1101
I3420
sg1102
I1312
sg1103
I3554
sg1104
I2818
sg1105
I945
sg1106
I2686
sg1107
I2979
sg1108
I1520
sg1109
I894
sg1110
I591
sg1111
I2319
sg1112
I2114
sg1113
I3429
sg1114
I1307
sg1115
I2781
sg1116
I3071
sg1117
I714
sg1118
I112
sg1119
I1118
sg1120
I1283
sg1121
I501
sg1122
I3113
sg1123
I1377
sg1124
I2915
sg1125
I922
sg1126
I953
sg1127
I2352
sg1128
I2050
sg1129
I1416
sg1130
I885
sg1131
I1655
sg1132
I1814
sg1133
I518
sg1134
I553
sg1135
I2577
sg1136
I1569
sg1137
I2074
sg1138
I1213
sg1139
I1907
sg1140
I73
sg1141
I382
sg1142
I769
sg1143
I1934
sg1144
I1413
sg1145
I3545
sg1146
I431
sg1147
I2804
sg1148
I3026
sg1149
I133
sg1150
I3460
sg1151
I2128
sg1152
I2745
sg1153
I1661
sg1154
I1702
sg1155
I1373
sg1156
I3323
sg1157
I2828
sg1158
I3649
sg1159
I3635
sg1160
I305
sg1161
I3491
sg1162
I470
sg1163
I129
sg1164
I2232
sg1165
I2788
sg1166
I433
sg1167
I881
sg1168
I3180
sg1169
I3312
sg1170
I2833
sg1171
I3415
sg1172
I69
sg1173
I2022
sg1174
I247
sg1175
I369
sg1176
I623
sg1177
I1499
sg1178
I766
sg1179
I1090
sg1180
I115
sg1181
I3038
sg1182
I3196
sg1183
I2500
sg1184
I31
sg1185
I987
sg1186
I243
sg1187
I2621
sg1188
I561
sg1189
I1784
sg1190
I2865
sg1191
I2540
sg1192
I3471
sg1193
I3293
sg1194
I2550
sg1195
I3443
sg1196
I3489
sg1197
I1909
sg1198
I1408
sg1199
I1631
sg1200
I1819
sg1201
I1807
sg1202
I2275
sg1203
I3473
sg1204
I2957
sg1205
I224
sg1206
I877
sg1207
I1853
sg1208
I2091
sg1209
I1479
sg1210
I1263
sg1211
I3008
sg1212
I2693
sg1213
I911
sg1214
I2466
sg1215
I523
sg1216
I985
sg1217
I3294
sg1218
I2474
sg1219
I2516
sg1220
I1431
sg1221
I1196
sg1222
I1089
sg1223
I2272
sg1224
I717
sg1225
I1476
sg1226
I3548
sg1227
I3572
sg1228
I26
sg1229
I2487
sg1230
I2373
sg1231
I3345
sg1232
I2555
sg1233
I2504
sg1234
I136
sg1235
I1889
sg1236
I923
sg1237
I2309
sg1238
I3069
sg1239
I156
sg1240
I80
sg1241
I822
sg1242
I760
sg1243
I3107
sg1244
I1252
sg1245
I2358
sg1246
I2276
sg1247
I715
sg1248
I2463
sg1249
I2070
sg1250
I2085
sg1251
I909
sg1252
I1827
sg1253
I2830
sg1254
I988
sg1255
I1574
sg1256
I13
sg1257
I2010
sg1258
I692
sg1259
I1191
sg1260
I2106
sg1261
I361
sg1262
I1677
sg1263
I3035
sg1264
I41
sg1265
I2787
sg1266
I1498
sg1267
I3134
sg1268
I2436
sg1269
I2846
sg1270
I1347
sg1271
I1682
sg1272
I2196
sg1273
I2464
sg1274
I3567
sg1275
I3347
sg1276
I3235
sg1277
I456
sg1278
I3002
sg1279
I2542
sg1280
I2006
sg1281
I3482
sg1282
I1947
sg1283
I1169
sg1284
I652
sg1285
I2726
sg1286
I1101
sg1287
I620
sg1288
I725
sg1289
I734
sg1290
I1687
sg1291
I850
sg1292
I3546
sg1293
I1766
sg1294
I2765
sg1295
I983
sg1296
I2817
sg1297
I3225
sg1298
I532
sg1299
I149
sg1300
I2363
sg1301
I1288
sg1302
I2029
sg1303
I1350
sg1304
I2718
sg1305
I3022
sg1306
I2608
sg1307
I2733
sg1308
I2258
sg1309
I120
sg1310
I48
sg1311
I310
sg1312
I982
sg1313
I3403
sg1314
I1031
sg1315
I171
sg1316
I3434
sg1317
I3386
sg1318
I1428
sg1319
I3456
sg1320
I1034
sg1321
I573
sg1322
I3329
sg1323
I2439
sg1324
I883
sg1325
I1974
sg1326
I637
sg1327
I1078
sg1328
I334
sg1329
I1278
sg1330
I1979
sg1331
I3065
sg1332
I1941
sg1333
I1102
sg1334
I3283
sg1335
I1676
sg1336
I3412
sg1337
I887
sg1338
I2419
sg1339
I223
sg1340
I608
sg1341
I3130
sg1342
I1241
sg1343
I1311
sg1344
I800
sg1345
I3505
sg1346
I1939
sg1347
I1265
sg1348
I2120
sg1349
I697
sg1350
I1535
sg1351
I274
sg1352
I1482
sg1353
I386
sg1354
I1041
sg1355
I1774
sg1356
I2835
sg1357
I1276
sg1358
I2378
sg1359
I2873
sg1360
I3349
sg1361
I2498
sg1362
I724
sg1363
I1095
sg1364
I395
sg1365
I866
sg1366
I831
sg1367
I2561
sg1368
I393
sg1369
I3013
sg1370
I3495
sg1371
I3651
sg1372
I3081
sg1373
I2707
sS'r'
I229
sg1374
I3444
sg1375
I261
sg1376
I646
sg1377
I2975
sg1378
I2248
sg1379
I3256
sg1380
I168
sg1381
I2501
sg1382
I3155
sg1383
I1773
sg1384
I1073
sg1385
I2368
sg1386
I1544
sg1387
I2386
sg1388
I2478
sg1389
I1221
sg1390
I212
sg1391
I2685
sg1392
I638
sg1393
I3224
sg1394
I1757
sg1395
I696
sg1396
I2206
sg1397
I783
sg1398
I1910
sg1399
I3409
sg1400
I2617
sg1401
I1842
sg1402
I3576
sg1403
I738
sg1404
I1475
sg1405
I2852
sg1406
I414
sg1407
I3438
sg1408
I443
sg1409
I1642
sg1410
I2537
sg1411
I1081
sg1412
I3496
sg1413
I3050
sg1414
I1675
sg1415
I2771
sg1416
I2897
sg1417
I3656
sg1418
I2820
sg1419
I718
sg1420
I1287
sg1421
I1528
sg1422
I1259
sg1423
I3264
sg1424
I1743
sg1425
I736
sg1426
I3285
sg1427
I3028
sg1428
I2885
sg1429
I40
sg1430
I1256
sg1431
I3085
sg1432
I1214
sg1433
I3480
sg1434
I844
sg1435
I2713
sg1436
I1747
sg1437
I765
sg1438
I1457
sg1439
I875
sg1440
I2081
sg1441
I1432
sg1442
I3462
sg1443
I411
sg1444
I890
sg1445
I2893
sg1446
I2413
sg1447
I2682
sg1448
I2034
sg1449
I368
sg1450
I3303
sg1451
I3275
sg1452
I1425
sg1453
I1392
sg1454
I1748
sg1455
I2397
sg1456
I1561
sg1457
I3655
sg1458
I55
sg1459
I202
sg1460
I604
sg1461
I2826
sg1462
I2201
sg1463
I992
sg1464
I3365
sg1465
I363
sg1466
I3536
sg1467
I1206
sg1468
I2297
sg1469
I2687
sg1470
I289
sg1471
I937
sg1472
I3083
sg1473
I3368
sg1474
I2798
sg1475
I402
sg1476
I1393
sg1477
I210
sg1478
I1035
sg1479
I1008
sg1480
I383
sg1481
I1732
sg1482
I2231
sg1483
I2699
sg1484
I2495
sg1485
I2027
sg1486
I1762
sg1487
I2643
sg1488
I3241
sg1489
I3208
sg1490
I2015
sg1491
I1920
sg1492
I2089
sg1493
I3037
sg1494
I1968
sg1495
I2776
sg1496
I2769
sg1497
I1992
sg1498
I2049
sg1499
I107
sg1500
I406
sg1501
I1142
sg1502
I1123
sg1503
I1659
sg1504
I2117
sg1505
I2698
sg1506
I942
sg1507
I2601
sg1508
I127
sg1509
I2412
sg1510
I654
sg1511
I616
sg1512
I2476
sg1513
I2318
sg1514
I1199
sg1515
I3391
sg1516
I3282
sS'3'
I612
sg1517
I2657
sg1518
I1346
sg1519
I808
sg1520
I3556
sg1521
I2790
sg1522
I2321
sg1523
I1948
sg1524
I2121
sg1525
I3348
sg1526
I841
sg1527
I3030
sg1528
I3666
sg1529
I1390
sg1530
I706
sg1531
I3316
sg1532
I2190
sg1533
I1443
sg1534
I630
sg1535
I1581
sg1536
I3000
sg1537
I2448
sg1538
I2004
sg1539
I2742
sg1540
I3136
sg1541
I2825
sg1542
I2520
sg1543
I1224
sg1544
I3670
sg1545
I768
sg1546
I1625
sg1547
I3568
sg1548
I3058
sg1549
I2047
sg1550
I1345
sg1551
I958
sg1552
I2648
sg1553
I1511
sg1554
I1039
sg1555
I1954
sg1556
I2858
sg1557
I967
sg1558
I2645
sg1559
I480
sg1560
I2222
sg1561
I150
sg1562
I1480
sg1563
I1483
sg1564
I3465
sg1565
I1942
sg1566
I3597
sg1567
I653
sg1568
I2638
sg1569
I693
sg1570
I618
sg1571
I1083
sg1572
I533
sg1573
I3503
sg1574
I1020
sg1575
I2467
sg1576
I1150
sg1577
I1885
sg1578
I2543
sg1579
I2640
sg1580
I2205
sg1581
I2338
sg1582
I2541
sg1583
I2613
sg1584
I2875
sg1585
I2774
sg1586
I3198
sg1587
I2442
sg1588
I403
sg1589
I2986
sg1590
I3629
sg1591
I3440
sg1592
I1239
sg1593
I473
sg1594
I1864
sg1595
I2408
sg1596
I1839
sg1597
I2930
sg1598
I888
sg1599
I114
sg1600
I1295
sg1601
I358
sg1602
I1478
sg1603
I735
sg1604
I10
sg1605
I3343
sg1606
I2290
sg1607
I1108
sg1608
I3660
sg1609
I3056
sg1610
I1605
sg1611
I435
sg1612
I2511
sg1613
I1140
sg1614
I1751
sg1615
I1070
sg1616
I1402
sg1617
I543
sg1618
I3599
sg1619
I3587
sg1620
I751
sg1621
I2791
sg1622
I3127
sg1623
I1463
sg1624
I2959
sg1625
I117
sg1626
I420
sS's'
I50
sg1627
I2296
sg1628
I2725
sg1629
I2024
sg1630
I2812
sg1631
I1912
sg1632
I1683
sg1633
I3277
sg1634
I1304
sg1635
I1843
sg1636
I1220
sg1637
I814
sg1638
I709
sg1639
I2125
sg1640
I2646
sg1641
I865
sg1642
I1334
sg1643
I85
sg1644
I161
sg1645
I3330
sg1646
I2836
sg1647
I2100
sg1648
I1929
sg1649
I1264
sg1650
I3413
sg1651
I773
sg1652
I1468
sg1653
I1251
sg1654
I3540
sg1655
I2178
sg1656
I3232
sg1657
I916
sg1658
I3259
sg1659
I2925
sg1660
I1282
sg1661
I3514
sg1662
I1136
sg1663
I2149
sg1664
I1204
sg1665
I348
sg1666
I534
sg1667
I3307
sg1668
I325
sg1669
I905
sg1670
I1219
sg1671
I2876
sg1672
I3288
sg1673
I1496
sg1674
I2351
sg1675
I2753
sg1676
I1033
sg1677
I755
sg1678
I1828
sg1679
I548
sg1680
I871
sg1681
I2814
sg1682
I2097
sg1683
I2310
sg1684
I151
sg1685
I2298
sS'4'
I2042
sg1686
I2802
sg1687
I2935
sg1688
I497
sg1689
I1200
sg1690
I650
sg1691
I1326
sg1692
I947
sg1693
I2251
sg1694
I1370
sg1695
I1470
sg1696
I2955
sg1697
I2209
sg1698
I1531
sg1699
I268
sg1700
I1715
sg1701
I3162
sg1702
I2305
sg1703
I743
sg1704
I3141
sg1705
I544
sg1706
I3165
sg1707
I695
sg1708
I3510
sg1709
I2142
sg1710
I3192
sS't'
I409
sg1711
I860
sg1712
I932
sg1713
I191
sg1714
I3439
sg1715
I1087
sg1716
I3137
sg1717
I3340
sg1718
I1027
sg1719
I2426
sg1720
I1972
sg1721
I3519
sg1722
I624
sg1723
I2014
sg1724
I186
sg1725
I1105
sg1726
I1243
sg1727
I140
sg1728
I2999
sg1729
I1758
sg1730
I1066
sg1731
I2486
sg1732
I787
sg1733
I1359
sg1734
I2343
sg1735
I2164
sg1736
I1258
sg1737
I2223
sg1738
I181
sg1739
I2387
sg1740
I2863
sg1741
I1487
sg1742
I1589
sg1743
I748
sg1744
I3627
sg1745
I2179
sg1746
I508
sg1747
I2415
sg1748
I1007
sg1749
I1097
sg1750
I2662
sg1751
I2013
sg1752
I2845
sg1753
I3116
sg1754
I1555
sg1755
I1023
sg1756
I108
sg1757
I154
sg1758
I1294
sg1759
I234
sg1760
I1604
sg1761
I1047
sg1762
I44
sg1763
I2302
sg1764
I1790
sg1765
I2903
sg1766
I3331
sg1767
I94
sg1768
I3336
sg1769
I761
sg1770
I467
sg1771
I2431
sg1772
I417
sg1773
I2884
sg1774
I2755
sg1775
I3643
sg1776
I2664
sg1777
I1469
sg1778
I3543
sg1779
I686
sg1780
I209
sg1781
I3673
sg1782
I352
sg1783
I2060
sg1784
I3173
sg1785
I1057
sg1786
I708
sg1787
I1803
sg1788
I998
sg1789
I3209
sg1790
I2652
sg1791
I784
sg1792
I1324
sg1793
I1329
sg1794
I731
sg1795
I3619
sg1796
I396
sg1797
I3346
sg1798
I3318
sg1799
I256
sg1800
I3201
sg1801
I2530
sg1802
I3057
sg1803
I3052
sg1804
I1497
sg1805
I2241
sg1806
I2619
sg1807
I3645
sg1808
I2183
sg1809
I846
sg1810
I61
sg1811
I1046
sg1812
I2729
sg1813
I1698
sg1814
I76
sg1815
I2569
sg1816
I3055
sg1817
I2563
sg1818
I2908
sg1819
I1233
sg1820
I3325
sg1821
I2189
sg1822
I2851
sg1823
I447
sg1824
I1399
sg1825
I1208
sg1826
I152
sg1827
I482
sg1828
I2988
sg1829
I505
sg1830
I351
sg1831
I2281
sg1832
I804
sg1833
I100
sg1834
I820
sg1835
I111
sg1836
I462
sg1837
I1129
sg1838
I240
sg1839
I1403
sg1840
I312
sg1841
I1465
sg1842
I3401
sg1843
I3388
sg1844
I1502
sg1845
I495
sg1846
I554
sg1847
I3041
sg1848
I771
sg1849
I3117
sg1850
I2056
sg1851
I3298
sg1852
I2174
sg1853
I1524
sg1854
I3445
sg1855
I1271
sg1856
I955
sg1857
I1051
sg1858
I3604
sg1859
I2770
sg1860
I927
sg1861
I3376
sg1862
I1798
sg1863
I3220
sg1864
I1164
sg1865
I2353
sg1866
I1330
sg1867
I2748
sg1868
I1189
sg1869
I1247
sg1870
I2328
sS'u'
I49
sg1871
I1924
sg1872
I810
sg1873
I667
sg1874
I1994
sg1875
I950
sg1876
I12
sg1877
I2347
sg1878
I545
sg1879
I333
sg1880
I747
sg1881
I390
sg1882
I1187
sg1883
I1592
sg1884
I2630
sg1885
I2928
sg1886
I3521
sg1887
I986
sg1888
I222
sg1889
I2642
sg1890
I2606
sg1891
I1547
sg1892
I575
sg1893
I2366
sg1894
I2714
sg1895
I1892
sg1896
I381
sg1897
I58
sg1898
I1240
sg1899
I2880
sg1900
I2724
sg1901
I2440
sg1902
I2653
sg1903
I1580
sg1904
I3249
sg1905
I939
sg1906
I2291
sg1907
I1313
sg1908
I1396
sg1909
I926
sg1910
I1921
sg1911
I1657
sg1912
I3226
sg1913
I2545
sg1914
I2895
sg1915
I1825
sg1916
I870
sg1917
I2688
sg1918
I2929
sg1919
I2389
sg1920
I1398
sg1921
I1788
sg1922
I3258
sg1923
I486
sg1924
I32
sg1925
I1194
sg1926
I296
sg1927
I1203
sg1928
I1116
sg1929
I546
sg1930
I405
sg1931
I1780
sg1932
I3474
sg1933
I3526
sg1934
I1344
sg1935
I949
sg1936
I1361
sg1937
I971
sg1938
I970
sg1939
I716
sg1940
I9
sg1941
I2075
sg1942
I1471
sg1943
I3211
sg1944
I721
sg1945
I511
sg1946
I832
sg1947
I1426
sg1948
I2778
sg1949
I1
sg1950
I2280
sg1951
I2482
sg1952
I1693
sg1953
I829
sg1954
I391
sg1955
I2589
sg1956
I324
sg1957
I1806
sg1958
I1365
sg1959
I3161
sg1960
I1085
sg1961
I3592
sg1962
I1614
sg1963
I1597
sg1964
I2145
sg1965
I1409
sg1966
I17
sg1967
I3327
sg1968
I2749
sg1969
I739
sg1970
I3387
sg1971
I1529
sg1972
I3428
sg1973
I297
sg1974
I2094
sg1975
I598
sg1976
I1100
sg1977
I20
sg1978
I6
sg1979
I3382
sg1980
I1038
sg1981
I1202
sg1982
I387
sg1983
I1025
sg1984
I2566
sg1985
I130
sg1986
I2156
sg1987
I1236
sg1988
I863
sg1989
I1857
sg1990
I3246
sg1991
I908
sg1992
I3632
sg1993
I253
sg1994
I1635
sg1995
I3154
sg1996
I1680
sg1997
I2508
sg1998
I97
sg1999
I401
sg2000
I2985
sg2001
I3163
sg2002
I2273
sg2003
I3451
sg2004
I3321
sg2005
I649
sg2006
I2104
sg2007
I1474
sg2008
I388
sg2009
I1726
sg2010
I2532
sg2011
I1121
sg2012
I353
sg2013
I354
sg2014
I688
sS'6'
I2062
sg2015
I3193
sg2016
I227
sg2017
I540
sg2018
I1998
sg2019
I1462
sg2020
I1215
sg2021
I1880
sg2022
I1533
sg2023
I239
sg2024
I3517
sg2025
I854
sg2026
I1759
sg2027
I1464
sg2028
I1935
sg2029
I2528
sg2030
I2481
sg2031
I110
sg2032
I3511
sg2033
I3014
sg2034
I643
sg2035
I1817
sg2036
I3538
sg2037
I3150
sg2038
I1306
sg2039
I1158
sg2040
I1755
sg2041
I2890
sg2042
I235
sg2043
I2314
sg2044
I2810
sg2045
I208
sg2046
I62
sg2047
I2496
sg2048
I2394
sS'v'
I410
sg2049
I2837
sg2050
I1144
sg2051
I2001
sg2052
I196
sg2053
I1300
sg2054
I1870
sg2055
I1006
sg2056
I1820
sg2057
I671
sg2058
I1771
sg2059
I2839
sg2060
I437
sg2061
I90
sg2062
I3590
sg2063
I3563
sg2064
I3106
sg2065
I3076
sg2066
I2572
sg2067
I1514
sg2068
I539
sg2069
I2690
sg2070
I3129
sg2071
I1175
sg2072
I1630
sg2073
I481
sg2074
I928
sg2075
I913
sg2076
I2879
sg2077
I1253
sg2078
I1518
sg2079
I2786
sg2080
I1764
sg2081
I1716
sg2082
I33
sg2083
I728
sg2084
I1211
sg2085
I3110
sg2086
I2088
sg2087
I592
sg2088
I570
sg2089
I3363
sg2090
I2383
sg2091
I3419
sg2092
I2130
sg2093
I3269
sg2094
I2131
sg2095
I893
sg2096
I2446
sg2097
I3410
sg2098
I3305
sS'a'
I96
sg2099
I2697
sg2100
I39
sg2101
I2598
sg2102
I3023
sg2103
I190
sg2104
I476
sg2105
I3504
sg2106
I337
sg2107
I2807
sg2108
I1481
sg2109
I1928
sg2110
I586
sg2111
I3004
sg2112
I3080
sg2113
I2968
sg2114
I2736
sg2115
I2727
sg2116
I1538
sg2117
I3067
sg2118
I2695
sg2119
I1104
sg2120
I172
sg2121
I1930
sg2122
I2105
sg2123
I2236
sg2124
I339
sg2125
I1291
sg2126
I304
sg2127
I331
sg2128
I880
sg2129
I827
sg2130
I3213
sg2131
I1685
sg2132
I3281
sg2133
I1977
sg2134
I2582
sg2135
I3170
sg2136
I2133
sg2137
I3218
sg2138
I1321
sg2139
I753
sg2140
I2037
sg2141
I335
sg2142
I3357
sg2143
I2052
sg2144
I1454
sg2145
I2626
sg2146
I627
sg2147
I2123
sg2148
I2936
sg2149
I1395
sg2150
I3131
sg2151
I1721
sg2152
I1654
sg2153
I3207
sg2154
I3648
sg2155
I767
sg2156
I3049
sg2157
I2212
sg2158
I3467
sg2159
I2553
sg2160
I2152
sg2161
I119
sg2162
I674
sg2163
I3078
sg2164
I469
sg2165
I868
sg2166
I1710
sg2167
I415
sg2168
I2472
sg2169
I1548
sg2170
I3640
sg2171
I572
sg2172
I2757
sg2173
I1260
sg2174
I3216
sg2175
I622
sg2176
I2554
sg2177
I195
sg2178
I2831
sg2179
I1895
sg2180
I1913
sg2181
I2143
sg2182
I3644
sg2183
I165
sg2184
I3084
sg2185
I1738
sg2186
I2465
sg2187
I43
sg2188
I3529
sg2189
I1053
sg2190
I1671
sg2191
I741
sg2192
I3417
sg2193
I1335
sg2194
I1126
sg2195
I1568
sS'7'
I520
sg2196
I3087
sg2197
I164
sg2198
I1410
sg2199
I2849
sg2200
I1894
sg2201
I122
sg2202
I2445
sg2203
I2357
sg2204
I138
sg2205
I2208
sg2206
I1599
sg2207
I3352
sg2208
I3073
sg2209
I973
sg2210
I1198
sg2211
I362
sg2212
I1473
sg2213
I3457
sg2214
I166
sg2215
I2923
sg2216
I1873
sg2217
I1028
sg2218
I1689
sg2219
I356
sS'w'
I241
sg2220
I1374
sg2221
I3523
sg2222
I3569
sg2223
I772
sg2224
I3068
sg2225
I1493
sg2226
I2470
sg2227
I1054
sg2228
I2717
sg2229
I1015
sg2230
I1109
sg2231
I645
sg2232
I1058
sg2233
I3019
sg2234
I2992
sg2235
I1504
sg2236
I2734
sg2237
I2689
sg2238
I3032
sg2239
I2109
sg2240
I2099
sg2241
I3499
sg2242
I128
sg2243
I1152
sg2244
I678
sg2245
I3195
sg2246
I3385
sg2247
I3606
sg2248
I2896
sg2249
I1745
sg2250
I2556
sg2251
I2871
sg2252
I3402
sg2253
I3533
sg2254
I3326
sg2255
I1343
sg2256
I3351
sg2257
I301
sg2258
I291
sg2259
I2475
sg2260
I2703
sg2261
I596
sg2262
I1572
sg2263
I3177
sg2264
I943
sg2265
I205
sg2266
I2065
sg2267
I1261
sg2268
I3317
sg2269
I101
sg2270
I203
sg2271
I1986
sg2272
I2365
sg2273
I217
sg2274
I259
sS'b'
I1573
sg2275
I2115
sg2276
I1436
sg2277
I2140
sg2278
I3344
sg2279
I1230
sg2280
I2256
sg2281
I1765
sg2282
I1565
sg2283
I2077
sg2284
I2910
sg2285
I2951
sg2286
I2132
sg2287
I1188
sg2288
I2228
sg2289
I2681
sg2290
I644
sg2291
I484
sg2292
I869
sg2293
I3450
sg2294
I3138
sg2295
I3392
sg2296
I3118
sg2297
I807
sg2298
I1383
sg2299
I1607
sg2300
I2624
sg2301
I3202
sg2302
I2420
sg2303
I3280
sg2304
I2054
sg2305
I1945
sg2306
I1730
sg2307
I3552
sg2308
I2977
sg2309
I3182
sg2310
I672
sg2311
I2453
sg2312
I2529
sg2313
I3377
sg2314
I2636
sg2315
I2780
sg2316
I3560
sg2317
I53
sg2318
I428
sg2319
I1810
sg2320
I1440
sg2321
I3007
sg2322
I938
sg2323
I3371
sg2324
I1559
sg2325
I2881
sg2326
I727
sg2327
I2867
sg2328
I1506
sg2329
I611
sg2330
I2854
sg2331
I109
sg2332
I364
sg2333
I2887
sg2334
I2144
sg2335
I1161
sg2336
I3469
sg2337
I2822
sg2338
I991
sg2339
I3486
sg2340
I824
sg2341
I3394
sg2342
I1254
sg2343
I1725
sg2344
I524
sg2345
I1147
sg2346
I3054
sg2347
I675
sg2348
I3591
sg2349
I1272
sg2350
I1672
sg2351
I2952
sg2352
I2728
sg2353
I1427
sg2354
I1455
sg2355
I1444
sg2356
I2207
sg2357
I835
sg2358
I3104
sg2359
I329
sS'8'
I749
sg2360
I242
sg2361
I2510
sg2362
I3609
sg2363
I852
sg2364
I276
sg2365
I1184
sg2366
I2243
sg2367
I2096
sg2368
I3375
sg2369
I498
sg2370
I2430
sg2371
I677
sg2372
I2641
sg2373
I1643
sg2374
I1477
sg2375
I3301
sg2376
I2821
sg2377
I542
sg2378
I350
sg2379
I1876
sg2380
I2477
sg2381
I588
sg2382
I698
sg2383
I2129
sg2384
I2403
sg2385
I285
sg2386
I2332
sg2387
I187
sg2388
I1667
sg2389
I1217
sg2390
I1558
sg2391
I3066
sg2392
I1813
sg2393
I3448
sg2394
I2359
sg2395
I1298
sg2396
I1349
sg2397
I3630
sg2398
I3639
sg2399
I37
sg2400
I651
sg2401
I2261
sg2402
I2421
sg2403
I2234
sg2404
I3228
sg2405
I3571
sg2406
I309
sg2407
I2931
sg2408
I1141
sg2409
I3588
sg2410
I1232
sg2411
I1633
sg2412
I3578
sg2413
I1318
sg2414
I2947
sg2415
I597
sg2416
I1678
sg2417
I3647
sg2418
I2518
sg2419
I2916
sg2420
I2320
sg2421
I587
sg2422
I1315
sg2423
I2744
sg2424
I1618
sg2425
I2139
sg2426
I2943
sg2427
I2398
sg2428
I2271
sg2429
I537
sg2430
I3319
sg2431
I1636
sg2432
I2792
sg2433
I1494
sS'c'
I538
sg2434
I1500
sg2435
I1367
sg2436
I2289
sg2437
I1093
sg2438
I897
sg2439
I1167
sg2440
I3528
sg2441
I3452
sg2442
I3099
sg2443
I1310
sg2444
I3400
sg2445
I1984
sg2446
I1926
sg2447
I236
sg2448
I1267
sg2449
I1001
sg2450
I2327
sg2451
I931
sg2452
I1860
sg2453
I293
sg2454
I3593
sg2455
I3006
sg2456
I1442
sg2457
I1323
sg2458
I3115
sg2459
I2067
sg2460
I306
sg2461
I2449
sg2462
I1822
sg2463
I3322
sg2464
I1389
sg2465
I2348
sg2466
I3355
sg2467
I3036
sg2468
I1578
sg2469
I1546
sg2470
I3016
sg2471
I839
sg2472
I593
sg2473
I2345
sg2474
I694
sg2475
I1791
sg2476
I159
sg2477
I1472
sg2478
I2141
sg2479
I1234
sg2480
I1209
sg2481
I961
sg2482
I449
sg2483
I2658
sg2484
I2204
sg2485
I2175
sg2486
I1381
sg2487
I2670
sg2488
I1645
sg2489
I2277
sg2490
I463
sg2491
I425
sg2492
I38
sg2493
I1861
sg2494
I1515
sg2495
I3133
sg2496
I2282
sg2497
I1281
sg2498
I2247
sg2499
I2051
sg2500
I3485
sg2501
I1570
sg2502
I2111
sg2503
I3309
sg2504
I2023
sg2505
I2702
sg2506
I2213
sg2507
I3167
sg2508
I2921
sg2509
I3364
sg2510
I2033
sg2511
I1466
sg2512
I2591
sg2513
I199
sg2514
I3501
sg2515
I1322
sg2516
I805
sg2517
I2268
sg2518
I1882
sg2519
I1723
sg2520
I2252
sg2521
I2609
sg2522
I2932
sg2523
I2956
sg2524
I1296
sg2525
I2661
sg2526
I2385
sg2527
I1566
sg2528
I2797
sg2529
I884
sg2530
I148
sg2531
I146
sg2532
I2138
sg2533
I3009
sg2534
I1309
sg2535
I3263
sg2536
I3267
sg2537
I1971
sg2538
I2570
sg2539
I1695
sg2540
I1896
sg2541
I84
sg2542
I1740
sg2543
I550
sg2544
I1699
sg2545
I1840
sg2546
I3664
sg2547
I3190
sg2548
I2283
sg2549
I1223
sg2550
I2844
sg2551
I956
sg2552
I1154
sg2553
I213
sg2554
I3091
sg2555
I2312
sg2556
I3287
sg2557
I1970
sg2558
I2186
sg2559
I3203
sg2560
I1072
sg2561
I754
sg2562
I1049
sg2563
I2396
sg2564
I162
sg2565
I1148
sg2566
I3153
sg2567
I506
sg2568
I1922
sg2569
I1868
sg2570
I1557
sg2571
I2371
sg2572
I366
sg2573
I3618
sg2574
I3466
sg2575
I92
sg2576
I3637
sg2577
I2090
sg2578
I2795
sg2579
I1865
sg2580
I1579
sg2581
I1270
sg2582
I2292
sg2583
I3564
sg2584
I726
sg2585
I492
sg2586
I2760
sg2587
I2949
sg2588
I994
sg2589
I2861
sg2590
I2679
sg2591
I487
sg2592
I703
sg2593
I2583
sg2594
I547
sg2595
I2102
sg2596
I2838
sg2597
I1779
sg2598
I2061
sg2599
I1991
sg2600
I2301
sg2601
I2882
sg2602
I3470
sg2603
I3404
sg2604
I669
sg2605
I2691
sg2606
I744
sg2607
I2859
sS'd'
I1628
sg2608
I1543
sg2609
I750
sg2610
I3151
sg2611
I3414
sg2612
I1467
sg2613
I682
sg2614
I2267
sg2615
I3334
sg2616
I3070
sg2617
I1201
sg2618
I1180
sg2619
I1742
sg2620
I1228
sg2621
I2103
sg2622
I3399
sg2623
I910
sg2624
I1838
sg2625
I3475
sg2626
I3406
sg2627
I2656
sg2628
I2303
sg2629
I2847
sg2630
I786
sg2631
I2181
sg2632
I2458
sg2633
I2059
sg2634
I2284
sg2635
I52
sg2636
I144
sg2637
I1623
sg2638
I102
sg2639
I2796
sg2640
I2600
sg2641
I1117
sg2642
I464
sg2643
I283
sg2644
I3502
sg2645
I560
sg2646
I2079
sg2647
I3237
sg2648
I1107
sg2649
I2627
sg2650
I2981
sg2651
I3437
sg2652
I2485
sg2653
I2607
sg2654
I282
sg2655
I2203
sg2656
I1277
sg2657
I1649
sg2658
I3101
sg2659
I522
sg2660
I2602
sg2661
I2891
sg2662
I1713
sg2663
I281
sg2664
I1647
sg2665
I2976
sg2666
I378
sg2667
I2963
sg2668
I3435
sg2669
I1802
sg2670
I2294
sg2671
I1385
sg2672
I189
sg2673
I2701
sg2674
I3657
sg2675
I1388
sg2676
I408
sg2677
I799
sg2678
I578
sg2679
I376
sg2680
I2137
sg2681
I1593
sg2682
I2683
sg2683
I64
sg2684
I2452
sg2685
I1830
sg2686
I2269
sg2687
I207
sg2688
I2459
sg2689
I2888
sg2690
I3516
sg2691
I806
sg2692
I1512
sg2693
I2525
sg2694
I3157
sg2695
I781
sg2696
I2946
sg2697
I2202
sg2698
I3621
sg2699
I1851
sg2700
I535
sg2701
I1032
sg2702
I662
sg2703
I1905
sg2704
I3254
sg2705
I1192
sg2706
I2409
sg2707
I1887
sg2708
I680
sg2709
I2163
sg2710
I3539
sg2711
I2660
sS'z'
I3274
sg2712
I3191
sg2713
I252
sg2714
I1718
sg2715
I1229
sg2716
I3512
sS'm'
I936
sg2717
I2850
sg2718
I1577
sg2719
I3369
sg2720
I1530
sg2721
I1103
sg2722
I3158
sg2723
I1266
sg2724
I1182
sg2725
I3310
sg2726
I3612
sg2727
I2864
sg2728
I2588
sg2729
I2696
sg2730
I1958
sg2731
I3488
sg2732
I3515
sg2733
I3248
sg2734
I2559
sg2735
I2534
sg2736
I3550
sg2737
I322
sg2738
I1541
sg2739
I756
sg2740
I1004
sg2741
I1155
sg2742
I2046
sg2743
I2118
sg2744
I1120
sg2745
I1540
sg2746
I944
sg2747
I237
sg2748
I3427
sg2749
I177
sg2750
I3086
sg2751
I400
sg2752
I3300
sg2753
I2454
sS'e'
I1195
sg2754
I2135
sg2755
I2249
sg2756
I1634
sg2757
I2991
sg2758
I610
sg2759
I3097
sg2760
I3090
sg2761
I3390
sg2762
I3255
sg2763
I3123
sg2764
I1908
sg2765
I2044
sg2766
I790
sg2767
I509
sg2768
I1255
sg2769
I2815
sg2770
I1837
sg2771
I2962
sg2772
I1172
sg2773
I566
sg2774
I379
sg2775
I1794
sg2776
I1815
sg2777
I2996
sg2778
I3189
sg2779
I3565
sg2780
I1376
sg2781
I2538
sg2782
I157
sg2783
I2840
sg2784
I1460
sg2785
I91
sg2786
I3179
sg2787
I1626
sg2788
I1332
sg2789
I1238
sg2790
I1668
sg2791
I81
sg2792
I2874
sg2793
I2316
sg2794
I1302
sg2795
I2411
sg2796
I815
sg2797
I2918
sg2798
I3128
sg2799
I1319
sg2800
I3350
sg2801
I525
sg2802
I1139
sg2803
I1904
sg2804
I3426
sg2805
I2028
sg2806
I320
sg2807
I451
sg2808
I1096
sg2809
I689
sg2810
I919
sg2811
I3667
sg2812
I712
sg2813
I1357
sg2814
I1849
sg2815
I2254
sg2816
I657
sg2817
I1652
sg2818
I2064
sg2819
I1492
sg2820
I1914
sg2821
I3059
sg2822
I3077
sg2823
I1166
sg2824
I855
sg2825
I811
sg2826
I3044
sg2827
I1231
sg2828
I314
sg2829
I3383
sg2830
I2372
sg2831
I3421
sg2832
I287
sg2833
I2752
sg2834
I1534
sg2835
I2404
sg2836
I2581
sg2837
I3252
sg2838
I1453
sg2839
I116
sg2840
I2904
sg2841
I3260
sg2842
I198
sg2843
I416
sg2844
I174
sg2845
I3242
sg2846
I216
sg2847
I206
sg2848
I184
sg2849
I3261
sg2850
I1564
sg2851
I2575
sg2852
I840
sg2853
I450
sg2854
I2592
sg2855
I494
sg2856
I1789
sg2857
I424
sg2858
I1355
sg2859
I3398
sg2860
I3040
sg2861
I2937
sg2862
I1074
sg2863
I1637
sg2864
I1218
sg2865
I3605
sg2866
I1106
sg2867
I1952
sg2868
I321
sg2869
I3432
sg2870
I2437
sg2871
I513
sg2872
I2811
sg2873
I3436
sg2874
I583
sg2875
I1532
sg2876
I966
sg2877
I3416
sg2878
I1014
sg2879
I347
sg2880
I666
sg2881
I3234
sg2882
I2766
sg2883
I2507
sg2884
I701
sg2885
I1197
sg2886
I2819
sg2887
I720
sg2888
I3074
sg2889
I842
sg2890
I2240
sg2891
I2080
sg2892
I178
sg2893
I536
sg2894
I1435
sg2895
I3472
sg2896
I284
sg2897
I826
sg2898
I24
sg2899
I2211
sg2900
I2562
sg2901
I1446
sg2902
I2450
sg2903
I1879
sg2904
I3149
sg2905
I3433
sg2906
I2514
sg2907
I155
sg2908
I770
sg2909
I3449
sg2910
I1552
sg2911
I2938
sg2912
I3613
sg2913
I2323
sg2914
I711
sg2915
I1362
sg2916
I1545
sg2917
I1584
sg2918
I2362
sg2919
I3384
sg2920
I2808
sg2921
I267
sg2922
I1650
sg2923
I2515
sg2924
I1274
sg2925
I1964
sg2926
I2711
sg2927
I1000
sg2928
I3291
sg2929
I1754
sg2930
I260
sg2931
I3005
sS'f'
I418
sg2932
I990
sg2933
I346
sg2934
I2942
sg2935
I3060
sg2936
I121
sg2937
I14
sg2938
I940
sg2939
I3188
sg2940
I3335
sg2941
I2521
sg2942
I459
sg2943
I2124
sg2944
I125
sg2945
I1781
sg2946
I1354
sg2947
I2216
sg2948
I3665
sg2949
I2730
sg2950
I2158
sg2951
I1933
sg2952
I1959
sg2953
I1719
sg2954
I948
sg2955
I89
sg2956
I1372
sg2957
I457
sg2958
I22
sg2959
I1043
sg2960
I2390
sg2961
I1060
sg2962
I2611
sg2963
I455
sg2964
I636
sg2965
I830
sg2966
I1776
sg2967
I1273
sg2968
I1826
sg2969
I3638
sg2970
I3634
sg2971
I1973
sg2972
I699
sg2973
I2035
sg2974
I2324
sg2975
I3184
sg2976
I2964
sg2977
I2285
sg2978
I3600
sg2979
I1082
sg2980
I2110
sg2981
I2019
sg2982
I1257
sg2983
I2866
sg2984
I823
sg2985
I700
sg2986
I3140
sg2987
I1371
sg2988
I2799
sg2989
I2199
sg2990
I1451
sg2991
I864
sg2992
I2382
sg2993
I70
sg2994
I1567
sg2995
I1893
sg2996
I232
sg2997
I1724
sg2998
I2773
sg2999
I1419
sg3000
I3181
sg3001
I3142
sg3002
I2427
sg3003
I3490
sg3004
I3430
sg3005
I1997
sg3006
I3146
sS'1'
I665
sg3007
I3506
sg3008
I3614
sg3009
I1351
sg3010
I2025
sg3011
I1244
sg3012
I1536
sg3013
I3531
sg3014
I3061
sg3015
I951
sg3016
I3270
sg3017
I713
sg3018
I1878
sg3019
I782
sg3020
I2973
sg3021
I3481
sg3022
I1404
sg3023
I580
sg3024
I1586
sg3025
I2356
sg3026
I3547
sg3027
I279
sg3028
I1875
sg3029
I3468
sg3030
I3098
sg3031
I3243
sg3032
I71
sg3033
I2068
sg3034
I72
sg3035
I2076
sg3036
I54
sg3037
I3594
sg3038
I1848
sg3039
I2841
sg3040
I1542
sg3041
I452
sg3042
I2375
sg3043
I918
sg3044
I557
sg3045
I1067
sg3046
I2406
sg3047
I2740
sg3048
I343
sg3049
I1421
sg3050
I3659
sg3051
I2226
sg3052
I3238
sg3053
I421
sg3054
I2704
sg3055
I2246
sg3056
I2782
sg3057
I1638
sg3058
I2159
sg3059
I1333
sg3060
I2998
sg3061
I2369
sg3062
I925
sg3063
I3423
sg3064
I601
sg3065
I1943
sg3066
I2126
sg3067
I2564
sg3068
I1075
sS"'"
I82
sg3069
I3020
sg3070
I1594
sg3071
I1703
sg3072
I3286
sg3073
I2560
sg3074
I2894
sg3075
I809
sg3076
I3668
sg3077
I1424
sg3078
I2428
sg3079
I419
sg3080
I3332
sg3081
I3215
sg3082
I629
sg3083
I485
sg3084
I2950
sg3085
I2200
sg3086
I214
sg3087
I752
sg3088
I1331
sg3089
I2333
sg3090
I2082
sg3091
I2238
sg3092
I1417
sg3093
I2434
sS'g'
I935
sg3094
I2438
sg3095
I777
sg3096
I458
sg3097
I412
sg3098
I1114
sg3099
I2913
sg3100
I1044
sg3101
I2490
sg3102
I3223
sg3103
I2993
sg3104
I2533
sg3105
I3641
sg3106
I1582
sg3107
I355
sg3108
I2380
sg3109
I3542
sg3110
I849
sg3111
I2805
sg3112
I798
sg3113
I238
sg3114
I2789
sg3115
I2072
sg3116
I2751
sg3117
I2635
sg3118
I1293
sg3119
I2167
sg3120
I15
sg3121
I2709
sg3122
I1010
sg3123
I1961
sg3124
I3662
sg3125
I251
sg3126
I2883
sg3127
I684
sg3128
I1527
sg3129
I979
sg3130
I3082
sg3131
I2509
sg3132
I2982
sg3133
I1171
sg3134
I2547
sg3135
I2210
sg3136
I288
sg3137
I705
sg3138
I2793
sg3139
I311
sg3140
I660
sg3141
I2360
sg3142
I3302
sg3143
I1289
sg3144
I3652
sg3145
I1899
sg3146
I1387
sg3147
I2030
sg3148
I2031
sg3149
I3455
sg3150
I2182
sg3151
I3570
sg3152
I1576
sg3153
I1003
sg3154
I1507
sg3155
I2198
sg3156
I399
sg3157
I655
sg3158
I3126
sg3159
I2842
sg3160
I3602
sg3161
I2287
sg3162
I8
sg3163
I344
sg3164
I1596
sg3165
I3313
sg3166
I453
sg3167
I1080
sg3168
I2761
sg3169
I359
sg3170
I851
sg3171
I292
sg3172
I2489
sg3173
I3092
sg3174
I995
sg3175
I2113
sg3176
I3477
sg3177
I1859
sg3178
I175
sg3179
I1400
sg3180
I2775
sg3181
I2919
sg3182
I859
sg3183
I1662
sg3184
I821
sg3185
I2502
sg3186
I182
sg3187
I3239
sg3188
I833
sg3189
I3212
sg3190
I1183
sg3191
I2862
sg3192
I2675
sg3193
I3089
sg3194
I3033
sg3195
I2551
sg3196
I3132
sg3197
I2395
sg3198
I1022
sg3199
I1275
sg3200
I1145
sg3201
I556
sg3202
I1525
sg3203
I2535
sg3204
I3566
sg3205
I2629
sg3206
I1441
sg3207
I1059
sg3208
I3524
sg3209
I245
sg3210
I872
sg3211
I230
sg3212
I2187
sg3213
I585
sg3214
I1131
sg3215
I3245
sg3216
I2813
sg3217
I2920
sg3218
I876
sg3219
I220
sg3220
I3461
sg3221
I640
sg3222
I3441
sg3223
I1488
sg3224
I2374
sg3225
I143
sg3226
I3251
sg3227
I1227
sg3228
I2016
sg3229
I1250
sg3230
I496
sg3231
I502
sg3232
I3171
sg3233
I302
sg3234
I2116
sg3235
I1616
sg3236
I1639
sg3237
I3064
sg3238
I1679
sg3239
I2172
sg3240
I1011
sg3241
I1782
sg3242
I3039
sg3243
I3513
sg3244
I113
sg3245
I3297
sg3246
I1587
sg3247
I1461
sg3248
I3607
sg3249
I2147
sg3250
I454
sg3251
I1526
sg3252
I3663
sg3253
I631
sg3254
I2522
sS'h'
I2557
sg3255
I917
sg3256
I2585
sg3257
I1486
sg3258
I3075
sg3259
I801
sg3260
I1138
sg3261
I1490
sg3262
I3608
sg3263
I516
sS'j'
I228
sg3264
I2177
sg3265
I1775
sg3266
I248
sg3267
I899
sg3268
I1965
sg3269
I1925
sg3270
I3017
sg3271
I197
sg3272
I2322
sg3273
I568
sg3274
I2857
sg3275
I2906
sg3276
I3272
sg3277
I802
sg3278
I51
sg3279
I2927
sg3280
I1336
sg3281
I3266
sg3282
I2307
sg3283
I299
sg3284
I3476
sg3285
I679
sg3286
I1133
sg3287
I2491
sg3288
I3031
sg3289
I1556
sg3290
I1423
sg3291
I3395
sg3292
I3247
sg3293
I3194
sg3294
I1722
sg3295
I478
sg3296
I3381
sg3297
I1850
sg3298
I2388
sg3299
I1960
sg3300
I2746
sg3301
I915
sg3302
I3338
sg3303
I2093
sg3304
I2461
sg3305
I1735
sg3306
I792
sg3307
I3574
sg3308
I3100
sg3309
I2499
sg3310
I1353
sg3311
I2340
sg3312
I2990
sg3313
I3487
sg3314
I1379
sg3315
I2576
sg3316
I1700
sg3317
I2468
sg3318
I2342
sg3319
I1338
sg3320
I3447
sg3321
I2384
sg3322
I793
sg3323
I589
sg3324
I367
sg3325
I1509
sg3326
I758
sg3327
I3333
sg3328
I1621
sg3329
I3393
sg3330
I499
sg3331
I3464
sg3332
I1013
sg3333
I2443
sg3334
I2824
sg3335
I1666
sg3336
I2227
sg3337
I2710
sg3338
I3160
sg3339
I733
sg3340
I2279
sg3341
I882
sg3342
I1036
sg3343
I1969
sg3344
I1292
sg3345
I1890
sg3346
I2184
sg3347
I2166
sg3348
I3339
sg3349
I226
sg3350
I2971
sg3351
I66
sg3352
I2218
sg3353
I200
sg3354
I3623
sg3355
I670
sg3356
I308
sg3357
I1644
sg3358
I1448
sg3359
I1989
sg3360
I503
sg3361
I2221
sg3362
I2953
sg3363
I2460
sg3364
I2354
sg3365
I3289
sg3366
I3046
sg3367
I1159
sg3368
I2905
sg3369
I1615
sg3370
I3306
sg3371
I3200
sg3372
I2794
sg3373
I3544
sg3374
I2335
sg3375
I2242
sg3376
I2860
sg3377
I2506
sg3378
I2041
sg3379
I2483
sg3380
I2596
sg3381
I1262
sg3382
I2043
sg3383
I1664
sg3384
I475
sg3385
I2418
sg3386
I345
sg3387
I1523
sg3388
I2902
sg3389
I2484
sg3390
I278
sg3391
I63
sg3392
I257
sg3393
I3043
sg3394
I1550
sg3395
I477
sg3396
I2628
sg3397
I3063
sg3398
I3479
sg3399
I1491
sg3400
I2462
sg3401
I1522
sg3402
I3483
sg3403
I3653
sg3404
I1651
sg3405
I298
sg3406
I3231
sg3407
I3573
sg3408
I1384
sg3409
I2739
sg3410
I3257
sg3411
I1042
sg3412
I745
sg3413
I903
sg3414
I1744
sS'i'
I1079
sg3415
I141
sg3416
I132
sg3417
I901
sg3418
I2230
sg3419
I2667
sg3420
I3175
sg3421
I86
sg3422
I1769
sg3423
I1248
sg3424
I796
sg3425
I2270
sg3426
I1519
sg3427
I1640
sg3428
I3001
sg3429
I3219
sg3430
I1485
sg3431
I2549
sg3432
I3253
sg3433
I471
sg3434
I2136
sg3435
I1414
sg3436
I517
sg3437
I873
sg3438
I1832
sg3439
I2087
sg3440
I1193
sg3441
I68
sg3442
I2379
sg3443
I2558
sg3444
I2834
sg3445
I2311
sg3446
I2194
sg3447
I1624
sg3448
I3233
sg3449
I3658
sg3450
I134
sg3451
I1760
sg3452
I2192
sS'5'
I1619
sg3453
I21
sg3454
I3559
sg3455
I2313
sg3456
I3003
sg3457
I2954
sg3458
I3418
sg3459
I993
sg3460
I2579
sg3461
I858
sg3462
I2331
sg3463
I634
sg3464
I1816
sg3465
I2994
sg3466
I7
sg3467
I2237
sg3468
I1113
sg3469
I984
sg3470
I265
sg3471
I2456
sg3472
I600
sg3473
I3507
sg3474
I472
sg3475
I483
sg3476
I614
sg3477
I3062
sg3478
I1360
sg3479
I2914
sg3480
I1772
sg3481
I1553
sg3482
I1337
sg3483
I34
sg3484
I1146
sg3485
I742
sg3486
I1521
sg3487
I3174
sg3488
I1595
sg3489
I57
sg3490
I2945
sg3491
I1225
sg3492
I907
sg3493
I3534
sg3494
I1314
sg3495
I2078
sg3496
I2253
sg3497
I258
sg3498
I126
sg3499
I2803
sg3500
I1091
sg3501
I1963
sg3502
I380
sg3503
I898
sg3504
I732
sg3505
I729
sg3506
I3147
sg3507
I2631
sg3508
I1951
sg3509
I1917
sg3510
I3553
sg3511
I2393
sg3512
I338
sg3513
I1517
sg3514
I3672
sg3515
I1301
sg3516
I2899
sg3517
I797
sg3518
I2565
sg3519
I2215
sg3520
I2989
sg3521
I3250
sg3522
I2750
sg3523
I1325
sg3524
I1048
sg3525
I1112
sg3526
I1115
sg3527
I914
sg3528
I1863
sg3529
I1246
sg3530
I1130
sg3531
I617
sg3532
I2960
sg3533
I3169
sg3534
I1712
sg3535
I1269
sg3536
I1005
sg3537
I446
sg3538
I1099
sg3539
I552
sg3540
I2083
sg3541
I1429
sg3542
I613
sg3543
I441
sg3544
I1190
sg3545
I1397
sg3546
I2494
sg3547
I3598
sg3548
I2150
sg3549
I266
sg3550
I2038
sg3551
I1980
sg3552
I3240
sg3553
I1434
sg3554
I2257
sg3555
I1761
sg3556
I576
sg3557
I1598
sg3558
I1785
sg3559
I1787
sg3560
I599
sg3561
I2063
sg3562
I3094
sg3563
I1286
sg3564
I1386
sg3565
I1983
sg3566
I2665
sg3567
I1707
sg3568
I2480
sg3569
I639
sg3570
I1931
sg3571
I1852
sg3572
I244
sg3573
I2650
sg3574
I1603
sg3575
I812
sg3576
I2741
sg3577
I273
sg3578
I2471
sg3579
I398
sg3580
I2505
sg3581
I563
sg3582
I1846
sg3583
I1978
sg3584
I3021
sg3585
I3362
sg3586
I3103
sg3587
I1065
sg3588
I87
sg3589
I779
sg3590
I625
sg3591
I465
sg3592
I2424
sg3593
I1076
sg3594
I2764
sg3595
I1406
sg3596
I635
sg3597
I555
sg3598
I2674
sg3599
I2376
sg3600
I3012
sg3601
I3671
sg3602
I3053
sg3603
I328
sg3604
I737
sg3605
I3271
sg3606
I2843
sg3607
I3424
sg3608
I857
sg3609
I2599
sg3610
I3497
sg3611
I719
sg3612
I2759
sg3613
I3555
sg3614
I603
sg3615
I3187
sg3616
I3320
sg3617
I3407
sg3618
I1902
sg3619
I1328
sg3620
I215
sg3621
I1701
sg3622
I2073
sg3623
I1808
sg3624
I1966
sg3625
I1168
sg3626
I1068
sg3627
I2151
sg3628
I1949
sg3629
I1484
sg3630
I558
sg3631
I1151
sg3632
I1503
sg3633
I615
sg3634
I3650
sg3635
I878
sg3636
I1834
sg3637
I3522
sg3638
I1002
sg3639
I2901
sg3640
I602
sg3641
I2603
sg3642
I1641
sg3643
I124
sg3644
I3361
sg3645
I2692
sg3646
I2961
sg3647
I2677
sg3648
I204
sg3649
I962
sg3650
I1767
sg3651
I683
sg3652
I2618
sg3653
I135
sg3654
I3661
sg3655
I219
sg3656
I1299
sg3657
I836
sg3658
I780
sg3659
I1308
ssS'_reverse_mapping'
p3662
(lp3663
g12
ag1949
ag1090
ag364
ag710
ag592
ag1978
ag3466
ag3162
ag1940
ag1604
ag221
ag1876
ag1256
ag2937
ag3120
ag149
ag1966
ag869
ag586
ag1977
ag3453
ag2958
ag814
ag2898
ag1051
ag1228
ag1005
ag997
ag1041
ag930
ag1184
ag1924
ag2082
ag3483
ag30
ag842
ag2399
ag2492
ag2100
ag1429
ag1264
ag537
ag2187
ag1762
ag742
ag94
ag575
ag1310
aS'u'
aS's'
ag3278
ag2635
ag2317
ag3036
ag1458
ag354
ag3489
ag1897
ag1021
ag783
ag1810
ag2046
ag3391
ag2683
ag901
ag3351
ag373
ag3441
ag1172
ag2993
ag3032
ag3034
ag1140
ag391
ag660
ag1814
ag1007
ag572
ag250
ag1240
ag2791
aS"'"
ag72
ag2541
ag1643
ag3421
ag3588
ag689
ag2955
ag2061
ag2785
ag2575
ag314
ag1767
ag798
aS'a'
ag1998
ag799
ag504
ag1833
ag2269
ag2638
ag863
ag881
ag564
ag577
ag1499
ag1756
ag2331
ag2031
ag1835
ag1118
ag3244
ag1599
ag1180
ag2839
ag1625
aS'l'
ag2161
ag1309
ag2936
ag2201
ag826
ag3643
ag2944
ag3498
ag1508
ag2242
ag1163
ag1985
ag381
ag3416
ag1149
ag3450
ag3653
ag1234
ag823
ag2204
ag904
ag1727
ag3415
ag608
ag3225
ag2636
ag579
ag2531
ag832
ag2530
ag1299
ag1561
ag1684
ag1826
ag563
ag1757
ag2907
ag1239
ag2782
ag800
ag2476
ag41
ag1644
ag2564
ag347
ag2197
ag2183
ag2214
ag303
ag1380
ag209
ag140
ag1315
ag2120
ag654
ag2844
ag3178
ag192
ag2749
ag2892
ag276
ag359
ag1738
ag3186
ag999
ag2848
ag1039
ag1724
ag2387
ag462
ag2672
ag2103
ag1713
ag396
ag918
ag729
ag2177
ag2052
ag3271
ag2842
ag2513
ag3353
ag941
ag1459
ag2270
ag3648
ag2265
ag2847
ag2687
ag2045
ag1780
ag1477
ag867
ag1390
ag2553
ag3086
ag3620
ag2846
ag2273
ag76
ag3655
ag3219
ag289
ag1888
ag1339
ag1205
ag179
ag3349
ag2016
aS'j'
aS'r'
ag3211
ag357
ag2996
ag1027
ag1759
ag2042
ag2447
ag2747
ag3113
ag2023
ag1838
aS'w'
ag2360
ag1186
ag3572
ag3209
ag532
ag1174
ag3266
ag896
ag686
ag3125
ag2713
ag1993
ag170
ag1011
ag1799
ag3392
ag3497
ag2274
ag2930
ag1375
ag1079
ag1033
ag879
ag3470
ag3549
ag2921
ag1699
ag24
ag47
ag175
ag317
ag3577
ag1351
ag350
ag2364
ag352
ag3390
ag3027
ag868
ag2663
ag2654
ag2643
ag2896
ag2385
ag732
ag2832
ag3136
ag1470
ag408
ag2258
ag3171
ag2453
ag603
ag155
ag1926
ag1973
ag3405
ag3283
ag746
ag2257
ag3233
ag709
ag2126
ag1160
ag2460
ag369
ag3356
ag2406
ag1311
ag3139
ag1840
ag817
ag2828
ag228
ag380
ag463
ag143
ag453
ag2806
ag2868
ag2737
ag484
ag1956
ag1668
ag576
ag154
ag3603
ag2359
ag771
ag2127
ag335
ag1879
ag1328
ag2141
ag870
ag2106
ag3512
ag2124
ag712
ag1055
ag458
ag3048
ag3163
ag3386
ag2933
ag2879
ag1665
ag1084
ag2378
ag1830
ag1782
ag2012
ag2013
ag3107
ag2219
ag523
ag1601
ag3169
ag544
ag1261
ag2211
ag1465
ag2332
ag952
ag2572
ag3324
ag1449
ag1175
ag781
ag167
ag543
ag551
ag812
ag183
ag2679
ag864
ag2666
ag2774
ag3502
ag1896
ag1141
ag1480
ag638
ag205
ag1353
ag1982
ag2008
ag363
ag1881
ag1954
ag574
ag1368
ag964
ag1364
ag1796
ag716
ag3579
ag3156
ag2751
ag1999
ag1475
ag1588
ag507
ag1930
ag1500
ag226
ag2676
aS't'
aS'v'
ag1443
ag3097
ag379
ag1406
ag2167
ag2843
ag1772
aS'f'
ag3079
ag1626
ag3053
ag967
ag128
ag2857
ag2491
ag269
aS'k'
ag2318
ag404
ag609
ag1146
ag828
ag1166
ag873
ag1611
ag750
ag2060
ag282
ag480
ag657
ag3543
ag468
ag1408
ag90
ag255
ag3537
ag1823
ag456
ag2482
ag2853
ag2807
ag3041
ag3166
ag3250
ag2963
ag1277
ag2957
ag3096
ag2942
ag919
ag546
ag1836
ag2490
ag2642
ag3591
ag787
ag1770
ag508
ag2164
ag1162
ag3433
ag3474
ag1593
ag803
ag3384
ag2104
ag3395
ag3295
ag23
ag1559
ag2073
ag1827
ag3475
ag2291
ag3083
ag1923
ag2591
ag327
ag788
ag626
ag994
ag2585
ag435
ag2855
ag1845
ag3230
ag1688
ag2369
ag3330
ag423
ag1121
ag3231
ag3360
ag279
ag1829
ag2567
ag773
ag1746
ag2767
ag702
ag1945
ag907
ag2871
aS'o'
ag948
ag3263
ag3436
ag1133
ag708
aS'7'
ag991
ag2659
ag1215
ag2344
ag2801
ag653
ag1085
ag680
ag616
ag329
ag581
ag1298
ag1572
ag1666
ag2700
ag2893
ag2429
aS'c'
ag2068
ag2017
ag130
ag2377
ag1617
ag1705
ag1878
ag1929
ag2594
ag1679
ag618
ag2543
ag43
ag3539
ag1134
ag1846
ag3597
ag3201
ag3044
ag3630
ag774
ag2645
ag1188
ag811
ag3581
ag522
ag425
ag2773
ag159
ag3273
ag411
ag2088
ag241
ag2171
ag1321
ag539
ag1892
ag3556
ag555
ag2678
ag284
ag3023
ag509
ag914
ag2874
ag426
ag3213
ag2110
ag2421
ag2381
ag3323
ag150
ag1110
ag2087
ag2472
ag231
ag985
ag2261
ag2415
ag1975
ag3560
ag3472
ag3064
ag3640
ag3614
ag1460
ag285
ag1087
ag897
ag1340
ag97
ag2758
ag2329
aS'3'
ag3542
ag3476
ag3633
ag1511
ag3531
ag1570
ag979
ag1287
ag599
ag2175
ag1176
ag1722
ag3590
ag668
ag2146
ag797
ag3082
ag1534
ag3253
ag865
ag996
ag3463
ag3596
ag2964
ag1326
ag1392
ag3569
ag3221
ag119
ag612
ag2034
ag2290
ag2231
ag1376
ag1070
ag145
ag2005
ag1690
ag2400
ag1284
ag1567
ag1510
ag3157
ag263
ag2816
ag924
ag619
ag3140
ag483
ag2702
ag372
ag915
aS'1'
ag2880
ag1873
ag738
ag2604
ag3355
ag2057
ag2310
ag32
ag2162
ag2347
ag769
ag2371
ag2244
ag3285
ag2708
ag615
ag2613
ag3651
ag3127
ag584
ag1779
ag144
ag2014
ag2809
ag623
ag975
ag1258
ag1569
ag2474
ag1707
ag1395
ag1349
ag2382
ag2972
ag2985
ag2884
ag146
ag2592
ag467
ag3137
ag1530
ag497
ag1786
ag1638
ag704
ag2914
ag2812
ag3017
ag1117
ag1247
ag1939
ag1224
ag1419
ag3611
ag2887
ag1944
ag1050
ag163
ag1362
ag1288
ag2584
ag2326
ag2083
ag3505
ag784
ag1794
ag3504
ag3339
ag1289
ag1603
ag1425
ag3604
ag1403
ag1969
ag1043
ag2191
ag3485
ag1703
ag2606
ag3412
ag764
ag1880
ag1743
aS'8'
ag2609
ag1620
ag3087
ag2139
ag2561
ag1677
ag2739
ag892
ag3326
ag727
ag1242
ag1769
ag50
ag322
ag989
ag1437
ag1178
ag2155
ag1545
ag1142
ag2908
ag1848
ag2223
ag1651
ag114
ag217
ag886
ag3095
ag1097
ag3589
ag3658
ag2695
ag3019
ag1397
ag1791
ag701
ag2630
ag1732
ag780
ag116
ag2766
ag741
ag3306
ag3322
ag541
ag403
ag3424
ag3517
ag3112
ag2677
ag1344
ag3259
ag3277
ag1078
ag1832
ag2516
ag2691
ag2297
ag1519
ag3075
ag1872
ag2825
ag3575
ag418
ag1637
ag2796
ag419
ag672
ag1034
ag606
ag1834
ag3184
ag1241
ag2984
ag2340
ag734
ag2897
ag2129
ag995
ag1953
ag2965
ag1366
ag1946
ag3188
ag109
ag2357
ag3657
ag735
ag254
ag2471
ag2852
ag1526
ag2889
ag432
ag1434
ag815
ag1809
ag111
ag801
ag3110
ag1291
ag3170
ag2363
ag607
ag2025
ag2824
ag872
ag3608
ag3461
ag3182
ag1711
ag506
ag1029
ag1988
ag2991
ag1641
ag1365
ag306
ag2165
ag2292
ag1916
ag1680
ag3210
ag3437
ag549
ag1439
ag3218
ag1206
ag3635
ag950
ag2128
ag1167
ag3341
ag1324
ag2529
ag1130
ag230
ag1337
ag1598
ag900
ag1444
ag375
ag113
ag2095
ag1109
ag92
ag455
ag2438
ag3503
ag3267
ag971
ag3417
ag486
ag3413
ag610
ag1669
ag73
ag3492
ag1991
ag1251
ag2623
ag1213
ag725
ag2075
ag3527
ag3301
ag1657
ag3255
ag3043
ag2810
ag558
ag861
ag1125
ag1236
ag1060
ag3062
ag1909
ag1860
ag2074
ag307
ag438
ag2451
ag1712
ag388
ag278
aS'g'
aS'm'
ag1471
ag2322
ag1905
ag2938
ag496
ag1506
ag2264
ag2746
ag1105
ag337
ag1692
ag2954
ag1935
ag1875
ag3015
ag377
ag1126
ag882
ag1856
ag2551
ag200
ag1551
ag1037
ag765
ag2481
ag3649
ag943
ag103
ag927
ag2876
ag1557
ag747
ag157
ag1938
ag1937
ag858
ag2209
ag131
ag1069
ag634
ag168
ag295
ag3129
ag591
ag1052
ag1312
ag1295
ag3469
ag1216
ag1887
ag1185
ag1254
ag165
ag2932
ag2338
ag1463
ag3459
ag2588
ag3174
ag434
ag1012
ag1788
ag1077
ag2927
ag2449
ag3638
ag3153
ag2740
ag3536
ag2055
ag1748
ag1479
ag240
ag3122
ag3240
ag846
ag3332
ag2878
ag2229
ag148
ag412
ag122
ag212
ag1574
ag705
ag3198
ag1755
ag833
ag1983
ag476
ag1718
ag2217
ag443
ag589
ag1314
ag2701
ag1676
ag1320
ag1478
ag3342
ag535
ag1980
ag1554
ag590
ag1354
ag3411
ag2959
ag3100
ag257
ag1811
ag1761
ag3524
ag2562
ag253
ag1857
ag681
ag2189
ag2227
ag88
ag570
ag1785
ag2232
ag3207
ag2961
ag190
ag838
ag841
ag239
ag3587
ag1730
ag3045
ag3626
ag860
ag1615
ag622
ag2560
ag1384
ag2862
ag3068
ag3593
ag358
ag1327
aS'i'
ag3167
ag1411
ag2979
ag1571
ag193
ag1960
ag737
ag1715
ag182
ag1222
ag1179
ag3500
ag1100
ag2437
ag540
ag1363
ag2808
ag1749
ag639
ag3538
ag1976
ag1286
ag1333
ag2721
ag2119
ag1725
ag2866
ag2648
ag1607
ag2230
ag637
ag1074
ag3525
ag3468
ag3098
ag3526
ag1928
ag2641
ag1119
ag59
ag2744
ag2011
ag911
ag1502
ag1088
ag83
ag2194
ag42
ag632
ag1837
ag3530
ag3214
ag274
ag3286
ag631
ag38
ag1662
ag415
ag3260
ag2802
ag1613
ag2408
ag1501
ag445
ag2050
ag3200
ag3484
ag2345
ag2565
ag402
ag1576
ag3631
ag2243
ag57
ag2552
ag2741
ag906
ag613
ag2039
ag3367
ag460
ag2335
ag1065
ag1062
ag1864
ag719
ag2823
ag2439
ag3625
ag1283
ag236
ag3133
ag2772
ag348
ag39
ag2071
ag957
ag694
ag949
ag416
ag2618
ag670
ag2724
ag3190
ag2365
ag1048
ag141
ag1882
ag2287
ag1868
ag3544
ag1259
ag2705
ag3440
ag1925
aS'e'
ag1221
ag2885
ag2210
ag1514
ag1689
ag2617
ag1981
ag1927
ag1664
ag1044
ag1467
ag728
ag1825
ag2480
ag970
ag2084
ag422
ag1138
ag1432
ag2020
ag697
ag2389
ag2864
ag1670
ag1636
ag1389
ag844
ag2549
ag1543
ag3491
ag935
ag3227
ag2620
ag2715
ag2279
ag2827
ag2410
ag1819
ag2479
ag100
ag1987
ag692
ag2789
ag1592
ag1898
ag1342
ag536
ag1726
ag3011
ag561
ag3529
ag1869
ag3423
ag248
ag3229
ag1653
ag1244
ag2077
ag2342
ag2768
ag1430
ag2982
ag1736
ag1422
ag2173
ag2267
ag3381
ag1210
ag1649
ag1347
ag2723
ag2448
ag1014
ag3535
ag2581
ag1855
ag2349
ag2967
ag2924
ag3199
ag1357
ag2656
ag1329
ag758
ag840
ag2497
ag1660
ag1120
ag625
ag749
ag3563
ag1420
ag1301
ag3143
ag666
ag2125
ag3344
ag3118
ag1758
ag1600
ag2524
ag550
ag2395
ag3656
ag2053
ag3515
ag2794
ag614
ag1634
ag414
ag2038
ag1114
ag3659
ag2534
ag2443
ag1343
ag1102
ag1907
ag3494
ag2422
ag124
ag188
ag2413
ag2799
ag762
ag2138
ag2515
ag2457
ag1792
ag3523
ag1691
ag651
ag3619
ag1793
ag1866
ag3088
ag2788
ag3059
ag1642
ag2193
ag3280
ag3482
ag3319
ag825
ag720
ag27
ag982
ag2255
ag1934
ag1550
ag1518
ag1270
ag229
ag2396
ag1303
ag3009
ag947
ag3310
ag2946
ag2858
ag582
ag2813
ag862
ag1733
ag3478
ag1936
ag2915
ag452
ag328
ag1958
ag308
ag2435
ag311
ag627
ag1694
ag2987
ag2956
ag1155
ag2220
ag162
ag2780
ag1123
aS'2'
ag3314
ag1082
ag2486
ag816
ag2298
ag3408
ag2671
ag3564
ag3146
ag2675
ag2464
ag1529
ag447
ag1453
ag1476
ag191
ag2149
ag1908
ag3545
ag1920
ag1824
ag3179
ag827
ag1616
ag1839
ag3022
ag836
ag3595
ag439
ag1198
ag1965
ag2198
ag91
ag430
ag1144
ag3435
ag194
ag1129
ag3092
ag954
ag2999
ag450
ag3049
ag259
ag3290
ag3077
ag1452
ag1947
ag2353
ag1318
ag3541
ag49
ag1220
ag1441
ag1004
ag3553
ag2894
ag2276
ag421
ag573
ag855
ag2320
ag3206
ag2456
ag1533
ag2355
ag187
ag2901
ag916
ag3358
ag652
ag988
ag2990
ag876
ag2838
ag2144
ag2354
ag207
ag1438
ag768
ag1035
ag2784
ag3247
ag2019
ag1623
ag2027
ag1841
ag2511
ag2612
ag1652
ag1777
ag1695
ag1942
ag2477
ag2212
ag2007
ag1404
ag1225
ag2374
ag1602
ag1209
ag1562
ag2108
ag1352
ag1563
ag3629
ag3430
ag3257
ag1741
ag3223
ag99
ag3261
ag3399
ag2819
ag2225
ag2433
ag713
ag1673
ag1804
ag1266
ag1177
ag2434
ag160
ag1844
ag3632
ag2235
ag324
ag2328
ag3154
ag461
ag3325
ag966
ag1553
ag2692
ag172
ag2067
ag2494
ag67
ag3513
ag2078
ag3426
ag1108
ag3486
ag3401
ag3387
ag1853
ag3202
ag3251
ag3128
ag1421
ag1971
ag2720
ag1698
ag2875
ag2022
ag2834
ag1350
ag3012
ag821
ag2116
ag264
ag2745
ag2738
ag3040
ag2608
ag1386
ag2916
ag2469
ag1891
ag2169
ag1016
ag3394
ag922
ag2910
ag3481
ag397
ag1754
ag3289
ag2570
ag2390
ag2324
ag465
ag1456
ag384
ag238
ag2850
ag2282
ag2527
ag2994
ag2195
ag1136
ag2501
ag117
ag2262
aS'b'
ag1255
ag1075
ag3152
ag2718
ag2468
ag2580
ag1903
ag1535
ag3106
ag472
ag2917
ag571
ag3024
ag3246
ag1003
ag1742
ag315
ag775
ag1883
ag2681
ag3070
ag3488
ag3164
ag1963
ag3557
ag2206
ag237
ag234
ag215
ag3574
ag1760
ag1610
ag56
ag2299
ag442
ag93
ag53
ag880
ag1059
ag344
ag1962
ag3369
ag3235
ag884
ag2424
aS'5'
aS'0'
ag3328
ag376
ag2637
ag3447
ag1546
ag2787
ag135
aS'd'
ag796
ag2072
ag1199
ag819
ag2411
ag2756
ag1994
ag2431
ag2863
ag3057
ag3236
ag3427
ag3642
ag1409
ag2373
ag3357
ag2488
ag560
ag2664
ag196
ag2657
ag2922
ag3404
ag2817
ag132
ag2152
ag1131
ag1064
ag1911
ag280
ag1503
ag431
ag1153
ag3183
ag356
ag3383
ag233
ag3335
ag2388
ag2790
ag247
ag955
ag2190
ag2350
ag394
ag501
ag1414
ag1335
ag1262
ag2416
ag3238
ag1996
ag621
ag1271
ag1632
ag202
ag2131
ag698
ag1290
ag810
ag2218
ag647
ag1038
ag201
ag1952
ag835
ag2539
ag945
ag296
ag1813
ag2544
ag3316
ag3621
ag1154
ag3071
ag674
ag66
ag156
ag3567
ag45
ag449
ag2166
ag46
ag3534
ag2662
ag531
ag1700
ag2081
ag813
ag2714
ag2953
ag902
ag2151
ag3294
ag2519
ag2997
ag2343
ag2009
ag1076
ag173
ag933
ag2306
ag332
ag1481
ag1047
ag252
ag3305
ag174
ag733
ag2185
ag667
ag2542
ag105
ag2619
ag1424
ag3414
ag2249
ag1094
ag1436
ag1454
ag326
ag934
ag1614
ag636
ag854
ag2929
ag2040
ag759
ag1394
ag1729
ag2026
ag3451
ag3555
ag1486
ag824
ag2080
ag2281
ag1293
ag3650
ag1066
ag3422
ag959
ag2058
ag3480
ag1383
ag1355
ag3265
ag2966
ag929
ag309
ag2597
ag1931
ag2945
ag3241
ag79
ag1189
ag3558
ag559
ag3559
ag1921
ag2856
ag1764
ag2475
ag630
ag888
ag2775
ag80
ag519
ag932
ag1862
ag960
ag656
ag81
ag2669
ag1787
ag203
ag169
ag1957
ag1201
ag3623
ag214
ag2319
ag849
ag511
ag2392
ag1132
ag2776
ag3464
ag2035
ag1017
ag1200
ag2056
ag321
ag2462
ag717
ag1026
ag1915
ag2968
ag1252
ag1678
ag25
ag2685
ag730
ag3438
ag433
ag3636
ag473
ag389
ag2770
ag2624
ag1596
ag2545
ag1023
ag1401
ag1635
ag1000
ag641
ag3582
ag26
ag3038
ag2814
ag3297
ag2699
ag3571
ag1207
ag300
ag51
ag981
ag1989
ag1099
ag3177
ag2452
ag2493
ag184
ag3528
ag1594
ag2579
ag649
ag44
ag2569
ag808
ag2054
ag406
ag339
ag2216
ag1036
ag3028
ag2379
ag557
ag3018
ag2903
ag2021
ag35
ag2518
ag687
ag21
ag1577
ag931
ag2707
ag136
ag1235
ag3345
ag368
ag1895
ag2995
ag2200
ag2179
ag2540
ag36
ag262
ag3145
ag684
ag962
ag3618
ag782
ag2803
ag2703
ag345
ag1139
ag2764
ag1197
ag1398
ag516
ag1631
ag2180
ag2820
ag1020
ag171
ag3509
ag318
ag662
ag1491
ag1910
ag2568
ag343
ag1871
ag3269
ag2446
ag1049
ag2109
ag1648
ag2121
ag3570
ag807
ag2951
ag1143
ag2028
ag281
ag319
ag310
ag1346
ag923
ag1332
ag1565
ag3065
ag594
ag2305
ag520
ag1282
ag1523
ag3628
ag224
ag3508
ag2867
ag482
ag1555
ag58
ag312
ag973
ag2730
ag2952
ag3299
ag3123
ag956
ag3501
ag2925
ag3268
ag3624
ag199
ag1494
ag3343
ag2557
ag2537
ag1720
ag2971
ag1325
ag275
ag789
ag2133
ag3583
ag1330
ag3551
ag459
ag939
ag3565
ag2445
ag448
ag2271
ag417
ag976
ag3359
ag498
ag2599
ag1497
ag650
ag1874
ag700
ag1092
ag3005
ag2018
ag138
ag469
ag2051
ag695
ag244
ag1538
ag646
ag1280
ag903
ag218
ag691
ag1257
ag568
ag552
ag1751
ag1723
ag1490
ag3228
ag831
ag151
ag2981
ag61
ag386
ag1173
ag2504
ag1629
ag3010
ag225
ag1485
ag2805
ag1302
ag3147
ag3148
ag677
ag2510
ag1448
ag2973
ag286
ag2140
ag3550
ag671
ag1025
ag3378
aS'4'
ag3382
ag2765
ag267
ag2742
ag1549
ag95
ag1498
ag1128
ag2499
ag2143
ag1013
ag2304
ag299
ag1850
ag953
ag545
ag2633
ag1783
ag2598
aS'6'
ag3561
ag2818
ag2266
ag246
ag2459
ag3033
ag790
ag1249
ag454
ag3115
ag3622
ag1137
ag1941
ag3035
ag2283
ag3495
ag2646
ag2891
ag1440
ag3090
ag3540
ag220
ag1250
ag409
ag3439
ag2086
ag1492
ag2577
ag1208
ag54
ag3303
ag1974
ag186
ag2367
ag1682
ag593
ag2240
ag1647
ag503
ag2595
ag2621
ag2006
ag2122
ag1260
ag946
ag644
ag2239
ag2980
ag2502
ag866
ag3175
ag1112
ag2275
ag3234
ag1504
ag2743
ag301
ag1348
ag1524
ag444
ag2147
ag2943
ag1639
ag3066
ag679
ag1151
ag2383
ag2092
ag2094
ag2286
ag2136
ag871
ag2754
ag3434
ag2680
ag2532
ag2425
ag2277
ag2478
ag1709
ag2181
ag2334
ag1964
ag791
ag3249
ag751
ag1663
ag3548
ag3627
ag2160
ag266
ag1089
ag752
ag1986
ag611
ag2950
ag3058
ag723
ag893
ag669
ag2709
ag1735
ag374
ag3347
ag3119
ag839
ag256
ag767
ag40
ag3239
ag440
ag1852
ag2485
ag597
ag3264
ag1655
ag1745
ag770
ag2631
ag3150
ag1808
ag3346
ag1063
ag2558
ag3212
ag428
ag1821
ag1532
ag805
ag3452
ag620
ag3446
ag718
ag1272
ag987
ag3155
ag2989
ag3085
ag1462
ag2697
ag2655
ag2484
ag1580
ag1396
ag2356
ag2205
ag1697
ag3135
ag2899
ag2157
ag2506
ag407
ag3519
ag2947
ag28
ag3352
ag137
ag601
ag3361
ag1560
ag1737
ag334
ag542
ag3051
ag3336
ag2288
ag802
ag3418
ag1482
ag1164
ag304
ag2403
ag963
ag2123
ag3467
ag3091
ag521
ag2890
ag1805
ag3375
ag2366
ag475
ag977
ag3055
ag2498
ag1378
ag2755
ag745
ag1693
ag2520
ag3496
ag2815
ag883
ag2280
ag3554
ag1308
ag794
ag1001
ag2401
ag600
ag715
ag1098
ag736
ag479
ag2614
ag2517
ag2686
ag3425
ag2428
ag1223
ag2002
ag847
ag1202
ag1246
ag2489
ag676
ag3340
ag1950
ag1831
ag2496
ag2548
ag2634
ag2977
ag707
ag3161
ag123
ag2436
ag1606
ag1906
ag2582
ag852
ag2670
ag908
ag1627
ag1468
ag1685
ag1067
ag471
ag2600
ag1763
ag2628
ag890
ag1702
ag875
ag3282
ag514
ag1237
ag1683
ag3445
ag2555
ag3455
ag2043
ag878
ag2793
ag859
ag1513
ag1111
ag2420
ag1522
ag3272
ag2913
ag2974
ag216
ag958
ag2450
ag1870
ag1095
ag1083
ag3462
ag2386
ag3089
ag515
ag3374
ag998
ag283
ag1581
ag548
ag3311
ag530
ag3318
ag1734
ag474
ag2473
ag510
ag1877
ag2465
ag899
ag181
ag1674
ag1127
ag1865
ag3364
ag776
ag3025
ag2203
ag1245
ag2394
ag3141
ag587
ag2918
ag1300
ag437
ag2272
ag1893
ag245
ag1385
ag3061
ag990
ag2571
ag2830
ag1230
ag3224
ag3042
ag3599
ag126
ag1358
ag3442
ag3108
ag706
ag2992
ag2090
ag3321
ag2526
ag1387
ag1739
ag3298
ag1919
ag2960
ag395
ag655
ag3511
ag2048
ag3197
ag2563
ag1455
ag2427
ag524
ag820
ag974
ag206
ag2384
ag2835
ag96
ag3046
ag365
ag1595
ag2706
ag806
ag2795
ag1509
ag1446
ag703
ag1747
ag518
ag1009
ag3385
ag1338
ag2302
ag2402
ag534
ag70
ag3592
ag763
ag1719
ag3002
ag3078
ag1031
ag2370
ag1771
ag658
ag659
ag3093
ag766
ag1268
ag2870
ag3094
ag1323
ag1901
ag288
ag1587
ag3333
ag830
ag2202
ag2096
ag424
ag1537
ag2461
ag2902
ag778
ag2684
ag2311
ag2753
ag133
ag3471
ag400
ag2632
ag2688
ag3363
ag3304
ag3400
ag1248
ag1273
ag2186
ag1214
ag1575
ag3317
ag290
ag2226
ag3578
ag2168
ag436
ag1218
ag2259
ag1512
ag2380
ag1388
ag107
ag3568
ag2030
ag1951
ag3379
ag3389
ag2652
ag1731
ag1229
ag513
ag3172
ag3101
ag3287
ag562
ag115
ag3546
ag1484
ag2047
ag478
ag1361
ag3309
ag1183
ag1381
ag3185
ag166
ag1233
ag3580
ag3377
ag2883
ag1997
ag3131
ag2361
ag1612
ag921
ag477
ag2906
ag2923
ag1219
ag951
ag2418
ag494
ag1542
ag2941
ag3254
ag761
ag917
ag2693
ag261
ag405
ag2029
ag2312
ag1801
ag125
ag2010
ag3104
ag2735
ag3203
ag739
ag1410
ag2781
ag978
ag1191
ag1582
ag1279
ag1578
ag1072
ag1913
ag744
ag3134
ag926
ag3431
ag1194
ag3195
ag197
ag2159
ag2176
ag1232
ag2250
aS'h'
ag3443
ag2734
ag3073
ag1367
ag2900
ag1817
ag3067
ag3518
ag1984
ag481
ag470
ag1815
ag2538
ag158
ag2066
ag441
ag489
ag2851
ag3315
ag1135
ag55
ag3460
ag313
ag2836
ag2134
ag2593
ag583
ag3256
ag222
ag857
ag2728
ag1955
ag492
ag2512
ag2854
ag525
ag153
ag785
ag3380
ag894
ag2101
ag3609
ag2640
ag1507
ag2660
ag3641
ag211
ag63
ag1890
ag2653
ag1306
ag2521
ag786
ag2962
ag1008
ag1583
ag675
ag779
ag69
ag1400
ag3652
ag1806
ag648
ag1187
ag1096
ag410
ag2300
ag1045
ag2145
ag2649
ag3396
ag3205
ag1884
ag3507
ag147
ag910
ag268
ag3117
ag2314
ag853
ag1568
ag756
ag1579
ag2372
ag1889
ag1487
ag446
ag1558
ag1640
ag487
ag1552
ag29
ag3573
ag260
ag1790
ag1902
ag208
ag346
ag2627
ag1517
ag2483
ag161
ag2711
ag2525
ag1750
ag292
ag1776
ag3566
ag795
ag3419
ag938
ag617
ag2487
ag696
ag748
ag936
ag3598
ag3192
ag387
ag3647
ag920
ag2590
ag142
ag2289
ag1447
ag2682
ag721
ag1391
ag1106
ag1469
ag1917
ag2237
ag2069
ag2605
ag3645
ag1212
ag928
ag2118
ag2729
ag2099
ag1505
ag1483
ag965
ag2673
ag2505
ag2260
ag3054
ag134
ag595
ag1373
ag89
ag3121
ag3337
ag2926
ag969
ag1435
ag1894
ag528
ag78
ag2228
ag1304
ag429
ag361
ag139
ag108
ag1040
ag1900
ag1628
ag1285
ag2115
ag2352
ag1812
ag2949
ag757
ag185
ag1307
ag2236
ag605
ag2114
ag1019
ag556
ag3409
ag3047
ag3576
ag1539
ag645
ag2423
ag1152
ag3300
ag1061
ag1867
ag1968
ag3522
ag3116
ag2833
ag1675
ag743
ag1774
ag1010
ag2172
ag1046
ag3612
ag2586
ag3168
ag118
ag251
ag3594
ag1294
ag2882
ag74
ag33
ag1496
ag1859
ag1415
ag401
ag2998
ag1585
ag3180
ag1495
ag258
ag1948
ag393
ag2315
ag1115
ag3056
ag71
ag302
ag527
ag2079
ag1265
ag1165
ag3114
ag1521
ag1621
ag2432
ag3138
ag3372
ag2578
ag2639
ag2528
ag1474
ag2988
ag685
ag98
ag1686
ag3499
ag1147
ag3111
ag129
ag2107
ag2920
ag485
ag2044
ag2872
ag1630
ag3216
ag1681
ag2769
ag112
ag1296
ag1104
ag2886
ag1418
ag2376
ag2337
ag331
ag3334
ag1541
ag1461
ag293
ag1157
ag427
ag1253
ag2178
ag20
ag1170
ag3444
ag1356
ag1646
ag2049
ag2596
ag2059
ag2783
ag3039
ag3159
ag3606
ag2550
ag1752
ag1269
ag2629
ag663
ag2199
ag2717
ag1822
ag1405
ag152
ag2330
ag305
ag1022
ag3274
ag1556
ag2607
ag3376
ag2589
ag3191
ag1740
ag2727
ag1190
ag2983
ag2327
ag82
ag273
ag378
ag2251
ag505
ag1359
ag2792
ag1584
ag1671
ag277
ag19
ag2076
ag1899
ag2325
ag2601
ag3126
ag1773
ag1428
ag249
ag2333
ag2689
ag1057
ag2041
ag2661
ag457
ag1445
ag3074
ag1914
ag2248
ag1416
ag271
ag3516
ag360
ag3639
ag3388
ag1765
ag2840
ag3368
ag3275
ag578
ag1818
ag333
ag2284
ag84
ag940
ag3099
ag3479
ag1124
ag2419
ag18
ag2797
ag3181
ag3217
ag2508
ag809
ag2215
ag760
ag1659
ag86
ag3279
ag1885
ag1918
ag1597
ag2407
ag2522
ag1018
ag1032
ag1687
ag2148
ag2861
ag2911
ag342
ag60
ag983
ag2934
ag2426
ag845
ag3490
ag2696
ag2414
ag493
ag2587
ag3084
ag2285
ag2351
ag3362
ag3457
ag1696
ag2523
ag1204
ag48
ag1624
ag3532
ag3646
ag2771
ag2667
ag2976
ag754
ag349
ag265
ag2113
ag909
ag848
ag3350
ag682
ag3020
ag856
ag1377
ag2665
ag2308
ag843
ag1107
ag178
ag2650
ag3132
ag399
ag693
ag2000
ag1589
ag1006
ag1828
ag3520
ag3312
ag2757
ag2234
ag3103
ag3465
ag688
ag2777
ag753
ag3060
ag1728
ag1536
ag3428
ag1278
ag3456
ag2111
ag2931
ag2455
ag2321
ag1211
ag2533
ag62
ag351
ag3600
ag1369
ag2033
ag371
ag2470
ag3270
ag488
ag2233
ag3069
ag3584
ag1305
ag2102
ag643
ag338
ag1148
ag874
ag1427
ag104
ag1527
ag3288
ag2238
ag3194
ag1081
ag1263
ag2467
ag1493
ag1181
ag3242
ag2860
ag1847
ag336
ag3393
ag2826
ag121
ag3366
ag180
ag272
ag2156
ag1413
ag834
ag1803
ag3602
ag2346
ag1816
ag1609
ag1802
ag1548
ag2821
ag2935
ag3014
ag3477
ag3397
ag3237
ag1331
ag2391
ag2117
ag2224
ag1238
ag2616
ag1116
ag340
ag2208
ag2888
ag3258
ag2065
ag2822
ag2163
ag420
ag2112
ag1372
ag3130
ag1472
ag2184
ag1431
ag2750
ag2196
ag891
ag3193
ag2760
ag2554
ag3173
ag298
ag3562
ag895
ag1093
ag2759
ag3030
ag2442
ag3308
ag2658
ag85
ag3586
ag2358
ag877
ag2064
ag1243
ag204
ag633
ag2085
ag383
ag491
ag1122
ag1002
ag2458
ag1753
ag1849
ag2296
ag102
ag642
ag355
ag569
ag2763
ag294
ag176
ag3158
ag1622
ag2798
ag2070
ag1341
ag2150
ag3196
ag2495
ag1267
ag944
ag1540
ag1716
ag2294
ag711
ag2986
ag1704
ag3001
ag526
ag529
ag464
ag3006
ag3506
ag554
ag2904
ag2037
ag2610
ag580
ag2566
ag1995
ag1382
ag602
ag2694
ag2722
ag968
ag3338
ag1959
ag1701
ag2001
ag1056
ag1706
ag850
ag2507
ag699
ag3533
ag2135
ag3232
ag287
ag1784
ag3487
ag3420
ag1068
ag2263
ag385
ag2786
ag1168
ag3000
ag2309
ag942
ag2975
ag538
ag223
ag3615
ag2939
ag2778
ag2547
ag2712
ag1710
ag2015
ag3293
ag2245
ag1182
ag127
ag1586
ag65
ag3371
ag1800
ag2301
ag2559
ag210
ag640
ag232
ag2153
ag1489
ag1789
ag495
ag1943
ag3189
ag2130
ag683
ag3081
ag2174
ag390
ag2137
ag3429
ag1863
ag75
ag804
ag3102
ag1393
ag1297
ag1912
ag678
ag2404
ag1058
ag596
ag3406
ag1656
ag3448
ag2881
ag1276
ag1086
ag2647
ag3052
ag3187
ag3552
ag1488
ag2845
ag3031
ag330
ag3215
ag1990
ag3292
ag2733
ag1904
ag3521
ag3226
ag2837
ag3432
ag2704
ag2762
ag1379
ag3410
ag1922
ag1658
ag2841
ag2849
ag392
ag2535
ag1423
ag52
ag3281
ag2536
ag106
ag2093
ag3016
ag3605
ag3276
ag731
aS'z'
ag1451
ag1028
ag1633
ag110
ag588
ag2303
ag2132
ag1516
ag1334
ag547
ag1426
ag3072
ag2556
ag1672
ag3365
ag777
ag2928
ag512
ag1193
ag1217
ag382
ag37
ag3245
ag1851
ag628
ag2752
ag2375
ag3142
ag1450
ag466
ag2098
ag3370
ag1667
ag1024
ag2503
ag2725
ag189
ag1169
ag3165
ag177
ag320
ag1531
ag2268
ag1798
ag2430
ag3616
ag2004
ag2463
ag1156
ag1091
ag1820
ag2254
ag1967
ag664
ag1322
ag1645
ag1766
ag3080
ag3327
ag2615
ag2940
ag1768
ag993
ag3302
ag3348
ag1717
ag598
ag500
ag1605
ag2278
ag1231
ag1797
ag1275
ag1525
ag1360
ag2800
ag2256
ag2207
ag837
ag992
ag2466
ag980
ag2142
ag502
ag822
ag227
ag3644
ag3585
ag2089
ag2509
ag1464
ag567
ag925
ag1473
ag2719
ag164
ag2323
ag566
ag341
ag398
ag2368
ag1861
ag2313
ag772
ag885
ag353
ag3296
ag1979
ag2829
ag2919
ag2246
ag1317
ag1970
ag1843
ag740
ag2761
ag1515
ag2295
ag3329
ag2341
ag3291
ag34
ag1030
ag2859
ag2622
ag2444
ag1842
ag2252
ag1313
ag2603
ag585
ag2626
ag3617
ag366
ag1399
ag2097
ag22
ag1336
ag1650
ag2611
ag1171
ag2877
ag2192
ag3458
ag2091
ag1101
ag2831
ag714
ag3063
ag3607
ag451
ag2804
ag2748
ag1972
ag1113
ag3004
ag77
ag2869
ag2905
ag1316
ag2668
ag2873
ag2651
ag1407
ag1714
ag1591
ag3222
ag291
ag1195
ag1374
ag1854
ag533
ag3320
ag2393
ag2909
ag2293
ag2003
ag2441
ag235
ag1054
ag3149
ag1319
ag2213
ag984
ag635
ag1150
ag3220
ag1442
ag818
ag3331
ag1564
ag2574
ag2158
ag3029
ag2336
ag2602
ag1192
ag2895
ag1203
ag1932
ag2625
ag3284
ag3176
ag690
ag3398
ag1433
ag3021
ag1281
ag3402
ag362
ag2500
ag2339
ag3313
ag2731
ag1196
ag3003
ag1161
ag898
ag629
ag367
ag1370
ag1412
ag3610
ag101
ag2241
ag829
ag2514
ag2644
ag1573
ag2105
ag1345
ag3007
ag3473
ag726
ag972
ag1708
ag2032
ag2716
ag3243
ag1661
ag2732
ag2690
ag2024
ag198
ag1721
ag1071
ag1886
ag3637
ag2221
ag3208
ag986
ag1933
ag120
ag2440
ag2188
ag195
ag3013
ag413
ag2253
ag3493
ag889
ag1466
ag31
ag2036
ag2710
ag1654
ag937
ag3109
ag1778
ag3373
ag1145
ag1292
ag3026
ag1226
ag87
ag2736
ag1053
ag2307
ag3510
ag1103
ag3613
ag1520
ag755
ag724
ag3454
ag2316
ag323
ag851
ag2063
ag2583
ag2779
ag3204
ag1274
ag1547
ag2222
ag3151
ag2405
ag1227
ag3407
ag3307
ag219
ag1402
ag490
ag2412
ag1073
ag270
ag517
ag553
ag64
ag912
ag661
ag792
ag1619
ag2409
ag793
ag2062
ag2348
ag1961
ag2454
ag3037
ag68
ag1042
ag1566
ag3547
ag1618
ag2978
ag673
ag3160
ag722
ag1858
ag2865
ag2247
ag3248
ag3262
ag2362
ag499
ag604
ag2726
ag2912
ag3008
ag325
ag243
ag961
ag2573
ag1795
ag297
ag2698
ag213
ag3354
ag242
ag624
ag316
ag1744
ag370
ag1590
ag2397
ag1015
ag1992
ag565
ag2970
ag1159
ag665
ag2576
ag2969
ag2398
ag2170
ag3105
ag905
ag1775
ag2182
ag1807
ag887
ag2417
ag2154
ag1158
ag3634
ag1371
ag3144
ag3403
ag1080
ag1457
ag1417
ag2674
ag3449
ag3050
ag1608
ag3654
ag3124
ag3252
ag2546
ag2948
ag1528
ag2811
ag3076
ag913
ag1544
ag3601
ag3514
ag1781
asbsS'max_document_length'
p3664
I32
sS'_tokenizer'
p3665
ctensorflow.contrib.learn.python.learn.preprocessing.text
tokenizer
p3666
sS'min_frequency'
p3667
I0
sb.